******************************************************************************
                  TI ARM Linker PC v20.2.5                     
******************************************************************************
>> Linked Sat Dec  4 13:44:13 2021

OUTPUT FILE NAME:   <mqtt_client_CC3220SF_LAUNCHXL_freertos_ccs.out>
ENTRY POINT SYMBOL: "resetISR"  address: 0101928d


MEMORY CONFIGURATION

         name            origin    length      used     unused   attr    fill
----------------------  --------  ---------  --------  --------  ----  --------
  FLASH_HDR             01000000   000007ff  00000000  000007ff  R  X
  FLASH                 01000800   000ff800  00019dda  000e5a26  R  X
  SRAM                  20000000   00040000  0000b075  00034f8b  RW X


SEGMENT ALLOCATION MAP

run origin  load origin   length   init length attrs members
----------  ----------- ---------- ----------- ----- -------
01000800    01000800    00019de0   00019de0    r-x
  01000800    01000800    00000040   00000040    r-- .resetVecs
  01000840    01000840    000190b8   000190b8    r-x .text
  010198f8    010198f8    00000ae2   00000ae2    r-- .const
  0101a3e0    0101a3e0    00000200   00000200    r-- .cinit
20000400    20000400    0000a96c   00000000    rw-
  20000400    20000400    00009be5   00000000    rw- .bss
  20009fe8    20009fe8    00000d84   00000000    rw- .data
2003fc00    2003fc00    00000400   00000000    rw-
  2003fc00    2003fc00    00000400   00000000    rw- .stack


SECTION ALLOCATION MAP

 output                                  attributes/
section   page    origin      length       input sections
--------  ----  ----------  ----------   ----------------
.resetVecs 
*          0    01000800    00000040     
                  01000800    00000040     freertos_builds_CC3220SF_LAUNCHXL_release_ccs.lib : startup_cc32xx_ccs.obj (.resetVecs:retain)

.text      0    01000840    000190b8     
                  01000840    00000a4e     rtsv7M4_T_le_eabi.lib : _printfi.c.obj (.text:__TI_printfi)
                  0100128e    00000002     ti_drivers_config.obj (.text:Board_initHook)
                  01001290    000008e8     simplelink.a : driver.obj (.text:_SlDrvMsgRead)
                  01001b78    00000540     mqtt_if.obj (.text:MQTTClientCallback)
                  010020b8    000004bc     simplelink.a : sl_socket.obj (.text:_SlSocketHandleAsync_Select)
                  01002574    0000042c     driverlib.a : prcm.obj (.text:PRCMCC3200MCUInit)
                  010029a0    00000384     simplelink.a : driver.obj (.text:_SlDrvMsgWrite)
                  01002d24    00000378     publish_task.obj (.text:publish_task)
                  0100309c    00000320     network_if.obj (.text:Network_IF_ConnectAP)
                  010033bc    0000031c     simplelink.a : driver.obj (.text:_SlDrvReleasePoolObj)
                  010036d8    0000031c     mqtt_if.obj (.text:jsmn_parse)
                  010039f4    000002e0     simplelink.a : driver.obj (.text:_SlDrvWaitForPoolObj)
                  01003cd4    000002d8                  : driver.obj (.text:_SlDrvRxHdrRead)
                  01003fac    000002b8     mqtt_if.obj (.text:MQTTAppThread)
                  01004264    000002b0     simplelink.a : wlan.obj (.text:sl_WlanProfileAdd)
                  01004514    000002ac                  : sl_socket.obj (.text:sl_Select)
                  010047c0    00000294     publish_task.obj (.text:WifiInit)
                  01004a54    0000028d     network_if.obj (.text:SimpleLinkSockEventHandler)
                  01004ce1    00000001     --HOLE-- [fill = 0]
                  01004ce2    00000002     driverlib.a : interrupt.obj (.text:IntDefaultHandler)
                  01004ce4    0000027c     simplelink.a : wlan.obj (.text:sl_WlanConnect)
                  01004f60    00000278     freertos_builds_CC3220SF_LAUNCHXL_release_ccs.lib : mqueue.obj (.text:mq_open)
                  010051d8    00000268     rtsv7M4_T_le_eabi.lib : _printfi.c.obj (.text:_pconv_a)
                  01005440    00000264     network_if.obj (.text:Network_IF_InitDriver)
                  010056a4    0000025c     simplelink.a : driver.obj (.text:_SlDrvDataReadOp)
                  01005900    0000024c     mqtt_if.obj (.text:MQTT_IF_Connect)
                  01005b4c    00000238     publish_task.obj (.text:DisplayAppBanner)
                  01005d84    0000022c     publish_task.obj (.text:MQTT_EventCallback)
                  01005fb0    00000224     simplelink.a : driver.obj (.text:_SlDrvDriverCBInit)
                  010061d4    00000218                  : driver.obj (.text:_SlDrvDataWriteOp)
                  010063ec    00000214     claw_control.obj (.text:claw_control_task)
                  01006600    0000020c     drivers_cc32xx.aem4 : UARTCC32XXDMA.oem4 (.text:UARTCC32XXDMA_open)
                  0100680c    00000208     freertos_builds_CC3220SF_LAUNCHXL_release_ccs.lib : tasks.obj (.text:xTaskIncrementTick)
                  01006a14    000001f4     simplelink.a : driver.obj (.text:_SlDrvMsgReadCmdCtx)
                  01006c08    000001f2                  : netapp.obj (.text:_SlNetAppEventHandler)
                  01006dfa    00000002     drivers_cc32xx.aem4 : PWMTimerCC32XX.oem4 (.text:PWMTimerCC32XX_init)
                  01006dfc    000001e4                         : GPIOCC32XX.oem4 (.text:GPIO_setConfig)
                  01006fe0    000001e1     network_if.obj (.text:SimpleLinkFatalErrorEventHandler)
                  010071c1    00000001     --HOLE-- [fill = 0]
                  010071c2    00000002     freertos_builds_CC3220SF_LAUNCHXL_release_ccs.lib : PowerCC32XX_freertos.obj (.text:PowerCC32XX_initPolicy)
                  010071c4    000001e0     simplelink.a : device.obj (.text:sl_Stop)
                  010073a4    000001d8     network_if.obj (.text:SimpleLinkWlanEventHandler)
                  0100757c    000001d0     drivers_cc32xx.aem4 : SPICC32XXDMA.oem4 (.text:SPICC32XXDMA_transfer)
                  0100774c    000001d0     freertos_builds_CC3220SF_LAUNCHXL_release_ccs.lib : queue.obj (.text:xQueueSemaphoreTake)
                  0100791c    000001cc     rtsv7M4_T_le_eabi.lib : _printfi.c.obj (.text:_pconv_g)
                  01007ae8    000001cc     freertos_builds_CC3220SF_LAUNCHXL_release_ccs.lib : tasks.obj (.text:xTaskResumeAll)
                  01007cb4    000001c4     mqtt_if.obj (.text:MQTT_IF_Subscribe)
                  01007e78    000001b8     drivers_cc32xx.aem4 : SPICC32XXDMA.oem4 (.text:configDMA)
                  01008030    000001b8     freertos_builds_CC3220SF_LAUNCHXL_release_ccs.lib : queue.obj (.text:xQueueGenericSend)
                  010081e8    000001b6     rtsv7M4_T_le_eabi.lib : fd_add_t2.asm.obj (.text)
                  0100839e    00000002     drivers_cc32xx.aem4 : TimerCC32XX.oem4 (.text:TimerCC32XX_init)
                  010083a0    000001b4     simplelink.a : driver.obj (.text:_SlDrvReleaseAllActivePendingPoolObj)
                  01008554    000001b0     freertos_builds_CC3220SF_LAUNCHXL_release_ccs.lib : PowerCC32XX_freertos.obj (.text:PowerCC32XX_sleepPolicy)
                  01008704    000001a8     simplelink.a : sl_socket.obj (.text:sl_Accept)
                  010088ac    000001a4     freertos_builds_CC3220SF_LAUNCHXL_release_ccs.lib : heap_4.obj (.text:pvPortMalloc)
                  01008a50    000001a0     mqtt_if.obj (.text:MQTT_IF_Init)
                  01008bf0    00000198     slnetsock_release.a : slnetsock.oem4 (.text:SlNetSock_select)
                  01008d88    00000190     simplelink.a : sl_socket.obj (.text:_SlDrvRegisterForSelectAsync)
                  01008f18    0000018c     mqtt_if.obj (.text:jsmn_parse_string)
                  010090a4    00000188     freertos_builds_CC3220SF_LAUNCHXL_release_ccs.lib : tasks.obj (.text:xTaskRemoveFromEventList)
                  0100922c    00000184     simplelink.a : driver.obj (.text:_SlDrvFindAndSetActiveObj)
                  010093b0    00000180     network_if.obj (.text:SimpleLinkNetAppEventHandler)
                  01009530    0000017c     freertos_builds_CC3220SF_LAUNCHXL_release_ccs.lib : queue.obj (.text:xQueueReceive)
                  010096ac    00000178     simplelink.a : sl_socket.obj (.text:sl_Connect)
                  01009824    00000170                  : netapp.obj (.text:sl_NetAppDnsGetHostByName)
                  01009994    00000160     mqtt_release.a : mqtt_net_func.oem4 (.text:createSocket)
                  01009af4    00000158     drivers_cc32xx.aem4 : SPICC32XXDMA.oem4 (.text:SPICC32XXDMA_open)
                  01009c4c    00000154     mqtt_release.a : mqttclient.oem4 (.text:MQTTClient_connect)
                  01009da0    00000154     freertos_builds_CC3220SF_LAUNCHXL_release_ccs.lib : timers.obj (.text:prvProcessReceivedCommands)
                  01009ef4    00000154     simplelink.a : sl_socket.obj (.text:sl_RecvFrom)
                  0100a048    00000148                  : sl_socket.obj (.text:_SlDrvGetNextTimeoutValue)
                  0100a190    00000148     drivers_cc32xx.aem4 : PowerCC32XX.oem4 (.text:parkPins)
                  0100a2d8    00000148     simplelink.a : sl_socket.obj (.text:sl_StartTLS)
                  0100a420    00000148     freertos_builds_CC3220SF_LAUNCHXL_release_ccs.lib : tasks.obj (.text:vTaskPriorityDisinheritAfterTimeout)
                  0100a568    00000140     drivers_cc32xx.aem4 : PWMTimerCC32XX.oem4 (.text:PWMTimerCC32XX_setDutyAndPeriod)
                  0100a6a8    00000140     simplelink.a : driver.obj (.text:_SlDrvMsgReadSpawnCtx)
                  0100a7e8    0000013c     rtsv7M4_T_le_eabi.lib : _printfi.c.obj (.text:_pconv_e)
                  0100a924    0000013a     freertos_builds_CC3220SF_LAUNCHXL_release_ccs.lib : tasks.obj (.text:prvInitialiseNewTask)
                  0100aa5e    00000002     drivers_cc32xx.aem4 : UARTCC32XXDMA.oem4 (.text:UARTCC32XXDMA_init)
                  0100aa60    00000138                         : PowerCC32XX.oem4 (.text:Power_sleep)
                  0100ab98    00000138     simplelink.a : driver.obj (.text:_SlSpawnMsgListInsert)
                  0100acd0    00000138     freertos_builds_CC3220SF_LAUNCHXL_release_ccs.lib : pthread.obj (.text:pthread_create)
                  0100ae08    00000136     rtsv7M4_T_le_eabi.lib : fd_div_t2.asm.obj (.text)
                  0100af3e    00000002     freertos_builds_CC3220SF_LAUNCHXL_release_ccs.lib : startup_cc32xx_ccs.obj (.text:busFaultHandler)
                  0100af40    00000134     simplelink.a : sl_socket.obj (.text:_SlSocketHandleAsync_StartTLS)
                  0100b074    00000130                  : driver.obj (.text:_SlDrvDriverCBDeinit)
                  0100b1a4    00000128     drivers_cc32xx.aem4 : TimerCC32XX.oem4 (.text:TimerCC32XX_open)
                  0100b2cc    00000128     simplelink.a : driver.obj (.text:_SlDrvClassifyRxMsg)
                  0100b3f4    00000128     freertos_builds_CC3220SF_LAUNCHXL_release_ccs.lib : queue.obj (.text:xQueueGenericSendFromISR)
                  0100b51c    00000124     simplelink.a : fs.obj (.text:sl_FsOpen)
                  0100b640    00000120                  : driver.obj (.text:_SlDrvAsyncEventGenericHandler)
                  0100b760    00000120     rtsv7M4_T_le_eabi.lib : _printfi.c.obj (.text:fcvt)
                  0100b880    00000120     freertos_builds_CC3220SF_LAUNCHXL_release_ccs.lib : tasks.obj (.text:xTaskPriorityInherit)
                  0100b9a0    0000011c     simplelink.a : device.obj (.text:sl_Start)
                  0100babc    00000118                  : netapp.obj (.text:_SlNetAppHandleAsync_DnsGetHostByService)
                  0100bbd4    00000118     freertos_builds_CC3220SF_LAUNCHXL_release_ccs.lib : tasks.obj (.text:vTaskSuspend)
                  0100bcec    00000118                                                       : tasks.obj (.text:xTaskPriorityDisinherit)
                  0100be04    00000112     mqtt_release.a : mqtt_common.oem4 (.text:MQTT_PacketRecv)
                  0100bf16    00000002     freertos_builds_CC3220SF_LAUNCHXL_release_ccs.lib : startup_cc32xx_ccs.obj (.text:defaultHandler)
                  0100bf18    00000110     rtsv7M4_T_le_eabi.lib : strtoul.c.obj (.text:strtoul)
                  0100c028    0000010e     freertos_builds_CC3220SF_LAUNCHXL_release_ccs.lib : queue.obj (.text:xQueueGiveFromISR)
                  0100c136    00000002                                                       : startup_cc32xx_ccs.obj (.text:faultISR)
                  0100c138    00000108     slnetsock_release.a : slnetutils.oem4 (.text:SlNetUtil_str2BinIpV6)
                  0100c240    00000104     simplelink.a : device.obj (.text:_SlDeviceEventHandler)
                  0100c344    00000104                  : driver.obj (.text:_SlDrvCmdOp)
                  0100c448    00000104     freertos_builds_CC3220SF_LAUNCHXL_release_ccs.lib : tasks.obj (.text:prvAddNewTaskToReadyList)
                  0100c54c    00000104                                                       : queue.obj (.text:xQueueGenericReset)
                  0100c650    00000100     simplelink.a : driver.obj (.text:_SlDrvObjGlobalLockWaitForever)
                  0100c750    00000100                  : fs.obj (.text:sl_FsWrite)
                  0100c850    00000100     freertos_builds_CC3220SF_LAUNCHXL_release_ccs.lib : tasks.obj (.text:vTaskDelete)
                  0100c950    000000fc     rtsv7M4_T_le_eabi.lib : fd_mul_t2.asm.obj (.text)
                  0100ca4c    000000f8     mqtt_release.a : mqttclient.oem4 (.text:MqttClientCtxCreate)
                  0100cb44    000000f8     slnetifwifi.a : slnetifwifi.obj (.text:SlNetIfWifi_loadSecObj)
                  0100cc3c    000000f8     drivers_cc32xx.aem4 : UARTCC32XXDMA.oem4 (.text:UARTCC32XXDMA_close)
                  0100cd34    000000f8     simplelink.a : sl_socket.obj (.text:sl_Close)
                  0100ce2c    000000f8     mqtt_release.a : client_core.oem4 (.text:utf8ArraySend)
                  0100cf24    000000f6                    : mqtt_net_func.oem4 (.text:MQTTNet_commOpen)
                  0100d01a    000000f6     freertos_builds_CC3220SF_LAUNCHXL_release_ccs.lib : queue.obj (.text:xQueueReceiveFromISR)
                  0100d110    000000f4     simplelink.a : sl_socket.obj (.text:sl_SendTo)
                  0100d204    000000f2     drivers_cc32xx.aem4 : SPICC32XXDMA.oem4 (.text:SPICC32XXDMA_transferCancel)
                  0100d2f6    00000002     freertos_builds_CC3220SF_LAUNCHXL_release_ccs.lib : startup_cc32xx_ccs.obj (.text:nmiISR)
                  0100d2f8    000000f0     drivers_cc32xx.aem4 : PWMTimerCC32XX.oem4 (.text:PWMTimerCC32XX_open)
                  0100d3e8    000000e8                         : UARTCC32XXDMA.oem4 (.text:initHw)
                  0100d4d0    000000e8     freertos_builds_CC3220SF_LAUNCHXL_release_ccs.lib : tasks.obj (.text:prvAddCurrentTaskToDelayedList)
                  0100d5b8    000000e4     slnetsock_release.a : slnetif.oem4 (.text:SlNetIf_add)
                  0100d69c    000000de     mqtt_release.a : client_core.oem4 (.text:connectMsgSend)
                  0100d77a    00000002     rtsv7M4_T_le_eabi.lib : div0.asm.obj (.text)
                  0100d77c    000000dc     main_freertos.obj (.text:main)
                  0100d858    000000dc     freertos_builds_CC3220SF_LAUNCHXL_release_ccs.lib : tasks.obj (.text:vTaskSwitchContext)
                  0100d934    000000d8     uart_term.obj (.text:GetCmd)
                  0100da0c    000000d8     drivers_cc32xx.aem4 : SPICC32XXDMA.oem4 (.text:SPICC32XXDMA_close)
                  0100dae4    000000d8     simplelink.a : device.obj (.text:_SlDeviceHandleAsync_InitComplete)
                  0100dbbc    000000d8                  : driver.obj (.text:_SlDrvWaitForInternalAsyncEvent)
                  0100dc94    000000d8                  : netapp.obj (.text:_SlNetAppHandleAsync_NetAppReceive)
                  0100dd6c    000000d0     publish_task.obj (.text:SetClientIdNamefromMacAddress)
                  0100de3c    000000d0     simplelink.a : driver.obj (.text:_SlDrvRemoveFromList)
                  0100df0c    000000d0     rtsv7M4_T_le_eabi.lib : s_scalbn.c.obj (.text:scalbn)
                  0100dfdc    000000cc     mqtt_release.a : mqttclient.oem4 (.text:processNotifyAckCB)
                  0100e0a8    000000c8     mqtt_if.obj (.text:jsmn_parse_primitive)
                  0100e170    000000c8     drivers_cc32xx.aem4 : SPICC32XXDMA.oem4 (.text:spiHwiFxn)
                  0100e238    000000c4                         : GPIOCC32XX.oem4 (.text:GPIO_init)
                  0100e2fc    000000c4                         : PWMTimerCC32XX.oem4 (.text:PWMTimerCC32XX_stop)
                  0100e3c0    000000c0     mqtt_release.a : mqttclient.oem4 (.text:MqttClientSub)
                  0100e480    000000c0     simplelink.a : cc_pal.obj (.text:NwpPowerOff)
                  0100e540    000000c0     drivers_cc32xx.aem4 : PowerCC32XX.oem4 (.text:restoreParkedPins)
                  0100e600    000000c0     simplelink.a : netcfg.obj (.text:sl_NetCfgGet)
                  0100e6c0    000000c0     freertos_builds_CC3220SF_LAUNCHXL_release_ccs.lib : port.obj (.text:xPortStartScheduler)
                  0100e780    000000bc     simplelink.a : netapp.obj (.text:_SlNetAppSendResponse)
                  0100e83c    000000bc     mqtt_release.a : client_core.oem4 (.text:clCtxConnStateTryLocked)
                  0100e8f8    000000bc     freertos_builds_CC3220SF_LAUNCHXL_release_ccs.lib : queue.obj (.text:prvCopyDataToQueue)
                  0100e9b4    000000bc                                                       : heap_4.obj (.text:prvHeapInit)
                  0100ea70    000000bc     simplelink.a : sl_socket.obj (.text:sl_Send)
                  0100eb2c    000000ba     freertos_builds_CC3220SF_LAUNCHXL_release_ccs.lib : portasm.obj (.text)
                  0100ebe6    000000ba     debug.obj (.text:setGPIOs)
                  0100eca0    000000b8     drivers_cc32xx.aem4 : PWMTimerCC32XX.oem4 (.text:PWMTimerCC32XX_setDuty)
                  0100ed58    000000b8                         : UARTCC32XXDMA.oem4 (.text:UARTCC32XXDMA_configDMA)
                  0100ee10    000000b8     simplelink.a : netapp.obj (.text:_SlNetAppHandleAsync_DnsGetHostByName)
                  0100eec8    000000b8                  : netapp.obj (.text:_SlNetAppHandleAsync_PingResponse)
                  0100ef80    000000b8     publish_task.obj (.text:pushButtonConnectionHandler)
                  0100f038    000000b8     simplelink.a : device.obj (.text:sl_DeviceGet)
                  0100f0f0    000000b8                  : wlan.obj (.text:sl_WlanGet)
                  0100f1a8    000000b4     mqtt_release.a : mqttclient.oem4 (.text:MqttClient_send)
                  0100f25c    000000b4     drivers_cc32xx.aem4 : UARTCC32XXDMA.oem4 (.text:UARTCC32XXDMA_hwiIntFxn)
                  0100f310    000000b4     simplelink.a : driver.obj (.text:_SlDrvHandleFatalError)
                  0100f3c4    000000b4                  : netutil.obj (.text:_SlNetUtilHandleAsync_Cmd)
                  0100f478    000000b4     freertos_builds_CC3220SF_LAUNCHXL_release_ccs.lib : clock.obj (.text:_clock_abstime2ticks)
                  0100f52c    000000b4     simplelink.a : sl_socket.obj (.text:sl_GetSockOpt)
                  0100f5e0    000000b4     freertos_builds_CC3220SF_LAUNCHXL_release_ccs.lib : tasks.obj (.text:xTaskCheckForTimeOut)
                  0100f694    000000b2     uart_term.obj (.text:Report)
                  0100f746    00000002     --HOLE-- [fill = 0]
                  0100f748    000000b1     rtsv7M4_T_le_eabi.lib : _printfi.c.obj (.text:_ltostr)
                  0100f7f9    00000003     --HOLE-- [fill = 0]
                  0100f7fc    000000b0     slnetifwifi.a : slnetifwifi.obj (.text:SlNetIfWifi_getSockOpt)
                  0100f8ac    000000ae                   : slnetifwifi.obj (.text:matchModeByRole)
                  0100f95a    000000ae     freertos_builds_CC3220SF_LAUNCHXL_release_ccs.lib : queue.obj (.text:prvUnlockQueue)
                  0100fa08    000000ac     simplelink.a : sl_socket.obj (.text:_SlSocketHandleAsync_Close)
                  0100fab4    000000ac                  : sl_socket.obj (.text:_SlSocketHandleAsync_Connect)
                  0100fb60    000000ac     freertos_builds_CC3220SF_LAUNCHXL_release_ccs.lib : clock.obj (.text:clock_gettime)
                  0100fc0c    000000a8     driverlib.a : interrupt.obj (.text:IntDisable)
                  0100fcb4    000000a8                 : interrupt.obj (.text:IntEnable)
                  0100fd5c    000000a8     network_if.obj (.text:Network_IF_IpConfigGet)
                  0100fe04    000000a8     driverlib.a : prcm.obj (.text:PRCMPeripheralClockGet)
                  0100feac    000000a8     drivers_cc32xx.aem4 : PowerCC32XX.oem4 (.text:PowerCC32XX_configureWakeup)
                  0100ff54    000000a8     freertos_builds_CC3220SF_LAUNCHXL_release_ccs.lib : heap_4.obj (.text:prvInsertBlockIntoFreeList)
                  0100fffc    000000a8     simplelink.a : fs.obj (.text:sl_FsClose)
                  010100a4    000000a8     freertos_builds_CC3220SF_LAUNCHXL_release_ccs.lib : heap_4.obj (.text:vPortFree)
                  0101014c    000000a6     simplelink.a : driver.obj (.text:_SlDrvIsTimeoutExpired)
                  010101f2    00000002     --HOLE-- [fill = 0]
                  010101f4    000000a4     mqtt_release.a : mqttclient.oem4 (.text:MQTTClient_create)
                  01010298    000000a4                    : mqttclient.oem4 (.text:MQTTClient_delete)
                  0101033c    000000a4                    : mqttclient.oem4 (.text:MqttClientConfig)
                  010103e0    000000a4     drivers_cc32xx.aem4 : PWMTimerCC32XX.oem4 (.text:initHw)
                  01010484    000000a4     simplelink.a : sl_socket.obj (.text:sl_Bind)
                  01010528    000000a0     freertos_builds_CC3220SF_LAUNCHXL_release_ccs.lib : ClockP_freertos.obj (.text:ClockP_create)
                  010105c8    000000a0     simplelink.a : fs.obj (.text:FsGetCreateFsMode)
                  01010668    000000a0                  : sl_socket.obj (.text:_SlDrvUnRegisterForSelectAsync)
                  01010708    000000a0                  : driver.obj (.text:_SlSpawnMsgListProcess)
                  010107a8    0000009e                  : cc_pal.obj (.text:spi_Read)
                  01010846    0000009e                  : cc_pal.obj (.text:spi_Write)
                  010108e4    0000009c     mqtt_release.a : client_core.oem4 (.text:MQTTClientCore_initLib)
                  01010980    0000009c                    : client_core.oem4 (.text:MQTTClientCore_sendPubMsg)
                  01010a1c    0000009c                    : client_core.oem4 (.text:_msgDispatch)
                  01010ab8    0000009c     rtsv7M4_T_le_eabi.lib : memcpy_t2.asm.obj (.text)
                  01010b54    0000009c     freertos_builds_CC3220SF_LAUNCHXL_release_ccs.lib : tasks.obj (.text:vTaskStartScheduler)
                  01010bf0    0000009a     mqtt_release.a : client_core.oem4 (.text:procPubMsgRx)
                  01010c8a    00000002     --HOLE-- [fill = 0]
                  01010c8c    00000098     mqtt_if.obj (.text:MQTT_IF_Publish)
                  01010d24    00000098     drivers_cc32xx.aem4 : PWMTimerCC32XX.oem4 (.text:PWMTimerCC32XX_setPeriod)
                  01010dbc    00000098     uart_term.obj (.text:TrimSpace)
                  01010e54    00000098     drivers_cc32xx.aem4 : GPIOCC32XX.oem4 (.text:powerNotifyFxn)
                  01010eec    00000096     mqtt_release.a : mqtt_net_func.oem4 (.text:MQTTNet_tcpSelect)
                  01010f82    00000096     rtsv7M4_T_le_eabi.lib : ull_div_t2.asm.obj (.text)
                  01011018    00000094     drivers_cc32xx.aem4 : ADCCC32XX.oem4 (.text:ADCCC32XX_open)
                  010110ac    00000094     simplelink.a : cc_pal.obj (.text:Semaphore_pend_handle)
                  01011140    00000094     drivers_cc32xx.aem4 : SPICC32XXDMA.oem4 (.text:initHw)
                  010111d4    00000092     slnetsock_release.a : slnetsock.oem4 (.text:SlNetSock_create)
                  01011266    00000092     freertos_builds_CC3220SF_LAUNCHXL_release_ccs.lib : mqueue.obj (.text:mq_send)
                  010112f8    00000090     slnetsock_release.a : slnetsock.oem4 (.text:SlNetSock_getVirtualSdConf)
                  01011388    00000090     simplelink.a : device.obj (.text:_SlDeviceHandleAsync_Stop)
                  01011418    00000090                  : sl_socket.obj (.text:_SlSocketHandleAsync_Accept)
                  010114a8    00000090     mqtt_release.a : mqttclient.oem4 (.text:processPublishRxCB)
                  01011538    00000090     drivers_cc32xx.aem4 : PowerCC32XX.oem4 (.text:restoreNVICRegs)
                  010115c8    0000008c     mqtt_release.a : client_core.oem4 (.text:MQTTClientCore_createCtx)
                  01011654    0000008c     slnetsock_release.a : slnetsock.oem4 (.text:SlNetSock_accept)
                  010116e0    0000008c     drivers_cc32xx.aem4 : UARTCC32XXDMA.oem4 (.text:UARTCC32XXDMA_write)
                  0101176c    0000008c     simplelink.a : driver.obj (.text:_SlDrvDriverIsApiAllowed)
                  010117f8    0000008c                  : driver.obj (.text:_SlDrvProtectAsyncRespSetting)
                  01011884    0000008c     freertos_builds_CC3220SF_LAUNCHXL_release_ccs.lib : clock.obj (.text:_clock_gettimeMono)
                  01011910    0000008c     simplelink.a : sl_socket.obj (.text:sl_Recv)
                  0101199c    00000088     drivers_cc32xx.aem4 : PWMTimerCC32XX.oem4 (.text:PWMTimerCC32XX_close)
                  01011a24    00000088     driverlib.a : pin.obj (.text:PinConfigSet)
                  01011aac    00000088     drivers_cc32xx.aem4 : TimerCC32XX.oem4 (.text:TimerCC32XX_setPeriod)
                  01011b34    00000088     freertos_builds_CC3220SF_LAUNCHXL_release_ccs.lib : mqueue.obj (.text:mq_receive)
                  01011bbc    00000088     mqtt_release.a : client_core.oem4 (.text:procConnackRx)
                  01011c44    00000088     freertos_builds_CC3220SF_LAUNCHXL_release_ccs.lib : timers.obj (.text:prvProcessTimerOrBlockTask)
                  01011ccc    00000088     simplelink.a : eventreg.obj (.text:sl_UnregisterLibsEventHandler)
                  01011d54    00000088     mqtt_release.a : client_core.oem4 (.text:wrConnectPayload)
                  01011ddc    00000086     rtsv7M4_T_le_eabi.lib : fd_cmp_t2.asm.obj (.text:__aeabi_cdcmple)
                  01011e62    00000086                           : fd_cmp_t2.asm.obj (.text:__aeabi_cdrcmple)
                  01011ee8    00000084     mqtt_if.obj (.text:MQTTHelperTopicMatching)
                  01011f6c    00000084     drivers_cc32xx.aem4 : PowerCC32XX.oem4 (.text:Power_init)
                  01011ff0    00000084     slnetifwifi.a : slnetifwifi.obj (.text:SlNetIfWifi_sockstartSec)
                  01012074    00000084     slnetsock_release.a : slnetutils.oem4 (.text:SlNetUtil_getHostByName)
                  010120f8    00000084     mqtt_release.a : client_core.oem4 (.text:mqpSetupProcCtxDataRecv)
                  0101217c    00000084     drivers_cc32xx.aem4 : PowerCC32XX.oem4 (.text:saveNVICRegs)
                  01012200    00000084     simplelink.a : sl_socket.obj (.text:sl_SetSockOpt)
                  01012284    00000084     freertos_builds_CC3220SF_LAUNCHXL_release_ccs.lib : timers.obj (.text:xTimerGenericCommand)
                  01012308    00000082                                                       : queue.obj (.text:xQueueGenericCreate)
                  0101238a    00000002     --HOLE-- [fill = 0]
                  0101238c    00000080     drivers_cc32xx.aem4 : PowerCC32XX.oem4 (.text:Power_setDependency)
                  0101240c    00000080                         : UARTCC32XXDMA.oem4 (.text:UARTCC32XXDMA_read)
                  0101248c    00000080     mqtt_release.a : client_core.oem4 (.text:clCtxPartSend)
                  0101250c    0000007c     mqtt_if.obj (.text:MQTTContextThread)
                  01012588    0000007c     drivers_cc32xx.aem4 : UDMACC32XX.oem4 (.text:UDMACC32XX_open)
                  01012604    0000007c     mqtt_release.a : client_core.oem4 (.text:procCtxDataRecv)
                  01012680    0000007a     drivers_cc32xx.aem4 : UARTCC32XXDMA.oem4 (.text:UARTCC32XXDMA_readPolling)
                  010126fa    0000007a     freertos_builds_CC3220SF_LAUNCHXL_release_ccs.lib : pthread.obj (.text:removeThreadKeys)
                  01012774    0000007a     rtsv7M4_T_le_eabi.lib : memset_t2.asm.obj (.text)
                  010127ee    0000007a     freertos_builds_CC3220SF_LAUNCHXL_release_ccs.lib : tasks.obj (.text:xTaskCreate)
                  01012868    00000078     drivers_cc32xx.aem4 : GPIOCC32XX.oem4 (.text:GPIO_hwiIntFxn)
                  010128e0    00000078     mqtt_release.a : mqtt_net_func.oem4 (.text:MQTTNet_recvFrom)
                  01012958    00000078     drivers_cc32xx.aem4 : TimerCC32XX.oem4 (.text:TimerCC32XX_start)
                  010129d0    00000078     freertos_builds_CC3220SF_LAUNCHXL_release_ccs.lib : timers.obj (.text:prvInsertTimerInActiveList)
                  01012a48    00000078     simplelink.a : sl_socket.obj (.text:sl_Socket)
                  01012ac0    00000078     freertos_builds_CC3220SF_LAUNCHXL_release_ccs.lib : tasks.obj (.text:vTaskPlaceOnEventListRestricted)
                  01012b38    00000074     drivers_cc32xx.aem4 : ADCCC32XX.oem4 (.text:ADCCC32XX_close)
                  01012bac    00000074     mqtt_release.a : mqtt_net_func.oem4 (.text:MQTTNet_tcpAccept)
                  01012c20    00000074     slnetsock_release.a : slnetsock.oem4 (.text:SlNetSock_AllocVirtualSocket)
                  01012c94    00000074     mqtt_release.a : client_core.oem4 (.text:groupCtxsRxPrep)
                  01012d08    00000074     freertos_builds_CC3220SF_LAUNCHXL_release_ccs.lib : tasks.obj (.text:prvInitialiseTaskLists)
                  01012d7c    00000074                                                       : pthread_mutex.obj (.text:pthread_mutex_init)
                  01012df0    00000074                                                       : port.obj (.text:vPortValidateInterruptPriority)
                  01012e64    00000072     mqtt_release.a : mqtt_common.oem4 (.text:MQTT_packetProcPubRx)
                  01012ed6    00000002     --HOLE-- [fill = 0]
                  01012ed8    00000070     slnetsock_release.a : slnetsock.oem4 (.text:SlNetSock_secAttribSet)
                  01012f48    00000070     simplelink.a : driver.obj (.text:_SlDrvCmdSend_noLock)
                  01012fb8    00000070     freertos_builds_CC3220SF_LAUNCHXL_release_ccs.lib : ClockP_freertos.obj (.text:setClockObjTimeout)
                  01013028    0000006e     rtsv7M4_T_le_eabi.lib : _printfi.c.obj (.text:_mcpy)
                  01013096    00000002     --HOLE-- [fill = 0]
                  01013098    0000006c     mqtt_release.a : mqttclient.oem4 (.text:MQTTClient_run)
                  01013104    0000006c     slnetsock_release.a : slnetutils.oem4 (.text:SlNetUtil_str2BinIpV4)
                  01013170    0000006c     simplelink.a : device.obj (.text:_SlDeviceHandleResetRequestInternally)
                  010131dc    0000006c                  : sl_socket.obj (.text:_SlDrvOpenCtrlSocket)
                  01013248    0000006c                  : netapp.obj (.text:_SlNetAppSendTokenValue)
                  010132b4    0000006c     publish_task.obj (.text:pushButtonPublishHandler)
                  01013320    0000006a     mqtt_release.a : mqtt_net_func.oem4 (.text:MQTTNet_sendTo)
                  0101338a    00000068                    : mqtt_common.oem4 (.text:MQTT_qos2PubCqUnlog)
                  010133f2    00000002     --HOLE-- [fill = 0]
                  010133f4    00000068     drivers_cc32xx.aem4 : PWMTimerCC32XX.oem4 (.text:PWMTimerCC32XX_start)
                  0101345c    00000068     simplelink.a : driver.obj (.text:_SlSpawnMsgListGetCount)
                  010134c4    00000068     rtsv7M4_T_le_eabi.lib : copy_decompress_lzss.c.obj (.text:decompress:lzss:__TI_decompress_lzss)
                  0101352c    00000068     freertos_builds_CC3220SF_LAUNCHXL_release_ccs.lib : tasks.obj (.text:eTaskConfirmSleepModeStatus)
                  01013594    00000068     simplelink.a : cc_pal.obj (.text:spi_Open)
                  010135fc    00000066     freertos_builds_CC3220SF_LAUNCHXL_release_ccs.lib : memory.obj (.text:realloc)
                  01013662    00000066                                                       : list.obj (.text:vListInsert)
                  010136c8    00000064     drivers_cc32xx.aem4 : ADCCC32XX.oem4 (.text:ADCCC32XX_convert)
                  0101372c    00000064     freertos_builds_CC3220SF_LAUNCHXL_release_ccs.lib : ClockP_freertos.obj (.text:ClockP_stop)
                  01013790    00000064     drivers_cc32xx.aem4 : GPIOCC32XX.oem4 (.text:GPIO_toggle)
                  010137f4    00000064     mqtt_release.a : mqtt_common.oem4 (.text:MQTT_packetPubAppendTopic)
                  01013858    00000064     drivers_cc32xx.aem4 : PowerCC32XX.oem4 (.text:PowerCC32XX_setParkState)
                  010138bc    00000064     freertos_builds_CC3220SF_LAUNCHXL_release_ccs.lib : pthread_mutex.obj (.text:acquireMutex)
                  01013920    00000064     mqtt_release.a : client_core.oem4 (.text:clientReset)
                  01013984    00000064                    : client_core.oem4 (.text:doNetClose)
                  010139e8    00000064     freertos_builds_CC3220SF_LAUNCHXL_release_ccs.lib : tasks.obj (.text:prvGetExpectedIdleTime)
                  01013a4c    00000064     timer500.obj (.text:start500)
                  01013ab0    00000062     freertos_builds_CC3220SF_LAUNCHXL_release_ccs.lib : timers.obj (.text:prvInitialiseNewTimer)
                  01013b12    00000002     --HOLE-- [fill = 0]
                  01013b14    00000060                                                       : HwiPCC32XX_freertos.obj (.text:HwiP_create)
                  01013b74    00000060     driverlib.a : prcm.obj (.text:PRCMSysResetCauseGet)
                  01013bd4    00000060     slnetsock_release.a : slnetsock.oem4 (.text:SlNetSock_recvFrom)
                  01013c34    00000060                         : slnetsock.oem4 (.text:SlNetSock_sendTo)
                  01013c94    00000060     drivers_cc32xx.aem4 : UARTCC32XXDMA.oem4 (.text:UARTCC32XXDMA_control)
                  01013cf4    00000060     freertos_builds_CC3220SF_LAUNCHXL_release_ccs.lib : pthread_mutex.obj (.text:pthread_mutex_unlock)
                  01013d54    0000005e     slnetifwifi.a : slnetifwifi.obj (.text:SlNetIfWifi_setSockOpt)
                  01013db2    0000005e     freertos_builds_CC3220SF_LAUNCHXL_release_ccs.lib : semaphore.obj (.text:sem_timedwait)
                  01013e10    0000005c     drivers_cc32xx.aem4 : GPIOCC32XX.oem4 (.text:GPIO_setCallback)
                  01013e6c    0000005c     uart_term.obj (.text:InitTerm)
                  01013ec8    0000005c     mqtt_release.a : client_core.oem4 (.text:MQTTClientCore_exitLib)
                  01013f24    0000005c                    : mqtt_net_func.oem4 (.text:MQTTNet_tcpListen)
                  01013f80    0000005c     simplelink.a : spawn.obj (.text:_SlInternalSpawn)
                  01013fdc    0000005c     freertos_builds_CC3220SF_LAUNCHXL_release_ccs.lib : memory.obj (.text:calloc)
                  01014038    0000005c     timer70.obj (.text:convert_To_mm)
                  01014094    0000005c     rtsv7M4_T_le_eabi.lib : s_frexp.c.obj (.text:frexp)
                  010140f0    0000005c     freertos_builds_CC3220SF_LAUNCHXL_release_ccs.lib : tasks.obj (.text:prvIdleTask)
                  0101414c    0000005c                                                       : pthread.obj (.text:pthread_exit)
                  010141a8    0000005c     timer70.obj (.text:start70)
                  01014204    0000005c     freertos_builds_CC3220SF_LAUNCHXL_release_ccs.lib : queue.obj (.text:vQueueWaitForMessageRestricted)
                  01014260    0000005c                                                       : tasks.obj (.text:vTaskDelay)
                  010142bc    00000058     drivers_cc32xx.aem4 : GPIOCC32XX.oem4 (.text:GPIO_write)
                  01014314    00000058     driverlib.a : interrupt.obj (.text:IntPendClear)
                  0101436c    00000058                 : prcm.obj (.text:PRCMPeripheralReset)
                  010143c4    00000058     drivers_cc32xx.aem4 : PowerCC32XX.oem4 (.text:Power_releaseDependency)
                  0101441c    00000058     slnetsock_release.a : slnetsock.oem4 (.text:SlNetSock_recv)
                  01014474    00000058                         : slnetsock.oem4 (.text:SlNetSock_send)
                  010144cc    00000058     simplelink.a : sl_socket.obj (.text:_SlDrvClearCtrlSocket)
                  01014524    00000058     mqtt_release.a : client_core.oem4 (.text:clRecv)
                  0101457c    00000058     debug.obj (.text:fatalError)
                  010145d4    00000058     mqtt_release.a : client_core.oem4 (.text:singleCtxKaSequence)
                  0101462c    00000058     simplelink.a : sl_socket.obj (.text:sl_Listen)
                  01014684    00000058                  : eventreg.obj (.text:sl_RegisterLibsEventHandler)
                  010146dc    00000058     freertos_builds_CC3220SF_LAUNCHXL_release_ccs.lib : port.obj (.text:vPortSetupTimerInterrupt)
                  01014734    00000058                                                       : queue.obj (.text:xQueueTakeMutexRecursive)
                  0101478c    00000056     mqtt_release.a : mqtt_common.oem4 (.text:MQTT_packetPubAppendData)
                  010147e2    00000056     freertos_builds_CC3220SF_LAUNCHXL_release_ccs.lib : SemaphoreP_freertos.obj (.text:SemaphoreP_create)
                  01014838    00000056     drivers_cc32xx.aem4 : TimerCC32XX.oem4 (.text:TimerCC32XX_stop)
                  0101488e    00000056     rtsv7M4_T_le_eabi.lib : _printfi.c.obj (.text:_pconv_f)
                  010148e4    00000056     mqtt_release.a : client_core.oem4 (.text:procAckMsgRx)
                  0101493a    00000002     --HOLE-- [fill = 0]
                  0101493c    00000054     freertos_builds_CC3220SF_LAUNCHXL_release_ccs.lib : ClockP_freertos.obj (.text:ClockP_delete)
                  01014990    00000054     driverlib.a : interrupt.obj (.text:IntPrioritySet)
                  010149e4    00000054     mqtt_release.a : client_core.oem4 (.text:MQTTClientCore_deleteCtx)
                  01014a38    00000054                    : client_core.oem4 (.text:MQTTClientCore_sendDisconn)
                  01014a8c    00000054     simplelink.a : driver.obj (.text:_SlDrvRxIrqHandler)
                  01014ae0    00000054     rtsv7M4_T_le_eabi.lib : _ltoa.c.obj (.text:__TI_ltoa)
                  01014b34    00000054     mqtt_release.a : client_core.oem4 (.text:grpNetSetupCreate)
                  01014b88    00000054     freertos_builds_CC3220SF_LAUNCHXL_release_ccs.lib : timers.obj (.text:xTimerCreateTimerTask)
                  01014bdc    00000052     drivers_cc32xx.aem4 : PowerCC32XX_asm.oem4 (.text:PowerCC32XX_resumeLPDS)
                  01014c2e    00000052     rtsv7M4_T_le_eabi.lib : _printfi.c.obj (.text:_ecpy)
                  01014c80    00000052     drivers_cc32xx.aem4 : TimerCC32XX.oem4 (.text:initHw)
                  01014cd2    00000002     --HOLE-- [fill = 0]
                  01014cd4    00000050     simplelink.a : cc_pal.obj (.text:NwpRegisterInterruptHandler)
                  01014d24    00000050     slnetsock_release.a : slnetif.oem4 (.text:SlNetIf_queryIf)
                  01014d74    00000050     drivers_cc32xx.aem4 : TimerCC32XX.oem4 (.text:TimerCC32XX_allocateTimerResource)
                  01014dc4    00000050                         : UARTCC32XXDMA.oem4 (.text:UARTCC32XXDMA_writePolling)
                  01014e14    00000050     simplelink.a : sl_socket.obj (.text:_SlDrvCloseCtrlSocket)
                  01014e64    00000050                  : driver.obj (.text:_SlDrvCmdSend_noWait)
                  01014eb4    00000050                  : driver.obj (.text:_SlDrvUpdateApiInProgress)
                  01014f04    00000050                  : spawn.obj (.text:_SlInternalSpawnTaskEntry)
                  01014f54    00000050                  : eventreg.obj (.text:_SlNetAppHttpServerHdlr)
                  01014fa4    00000050                  : eventreg.obj (.text:_SlNetAppRequestHdlr)
                  01014ff4    00000050     mqtt_release.a : client_core.oem4 (.text:_procAckMsgRx)
                  01015044    00000050     freertos_builds_CC3220SF_LAUNCHXL_release_ccs.lib : mqueue.obj (.text:mq_close)
                  01015094    00000050                                                       : port.obj (.text:pxPortInitialiseStack)
                  010150e4    00000050                                                       : semaphore.obj (.text:sem_init)
                  01015134    00000050                                                       : queue.obj (.text:xQueueGiveMutexRecursive)
                  01015184    0000004e     mqtt_release.a : client_core.oem4 (.text:MQTTClientCore_registerWillInfo)
                  010151d2    0000004e     drivers_cc32xx.aem4 : UARTCC32XXDMA.oem4 (.text:writeCancel)
                  01015220    0000004c                         : GPIOCC32XX.oem4 (.text:GPIO_disableInt)
                  0101526c    0000004c                         : GPIOCC32XX.oem4 (.text:GPIO_enableInt)
                  010152b8    0000004c     simplelink.a : cc_pal.obj (.text:NwpWaitForShutDownInd)
                  01015304    0000004c     drivers_cc32xx.aem4 : PowerCC32XX.oem4 (.text:PowerCC32XX_parkPin)
                  01015350    0000004c     slnetifwifi.a : slnetifwifi.obj (.text:SlNetIfWifi_getConnectionStatus)
                  0101539c    0000004c     slnetsock_release.a : slnetsock.oem4 (.text:SlNetSock_freeVirtualSocket)
                  010153e8    0000004c                         : slnetsock.oem4 (.text:SlNetSock_startSec)
                  01015434    0000004c     mqtt_release.a : client_core.oem4 (.text:ack1WlMqpDispatch)
                  01015480    0000004c     rtsv7M4_T_le_eabi.lib : atoi.c.obj (.text:atoi)
                  010154cc    0000004c     drivers_cc32xx.aem4 : PWMTimerCC32XX.oem4 (.text:getDutyCounts)
                  01015518    0000004c                         : PWMTimerCC32XX.oem4 (.text:getPeriodCounts)
                  01015564    0000004c     freertos_builds_CC3220SF_LAUNCHXL_release_ccs.lib : startup_cc32xx_ccs.obj (.text:initVectors)
                  010155b0    0000004c     mqtt_release.a : client_core.oem4 (.text:loopbTrigger)
                  010155fc    0000004c     freertos_builds_CC3220SF_LAUNCHXL_release_ccs.lib : timers.obj (.text:prvCheckForValidListAndQueue)
                  01015648    0000004c                                                       : tasks.obj (.text:prvCheckTasksWaitingTermination)
                  01015694    0000004c                                                       : timers.obj (.text:prvProcessExpiredTimer)
                  010156e0    0000004c     drivers_cc32xx.aem4 : PowerCC32XX.oem4 (.text:restorePeriphClocks)
                  0101572c    0000004c     mqtt_release.a : client_core.oem4 (.text:singleCtxRxPrep)
                  01015778    0000004c     simplelink.a : wlan.obj (.text:sl_WlanSetMode)
                  010157c4    0000004c     rtsv7M4_T_le_eabi.lib : snprintf.c.obj (.text:snprintf)
                  01015810    0000004c     freertos_builds_CC3220SF_LAUNCHXL_release_ccs.lib : port.obj (.text:vPortEnterCritical)
                  0101585c    0000004c                                                       : tasks.obj (.text:vTaskSetThreadLocalStoragePointer)
                  010158a8    0000004b     publish_task.obj (.text:ToggleLED1CB)
                  010158f3    00000001     --HOLE-- [fill = 0]
                  010158f4    0000004b     publish_task.obj (.text:ToggleLED2CB)
                  0101593f    00000001     --HOLE-- [fill = 0]
                  01015940    0000004b     publish_task.obj (.text:ToggleLED3CB)
                  0101598b    00000001     --HOLE-- [fill = 0]
                  0101598c    0000004a     mqtt_release.a : client_core.oem4 (.text:clCtxRecv)
                  010159d6    0000004a     drivers_cc32xx.aem4 : UARTCC32XXDMA.oem4 (.text:readCancel)
                  01015a20    00000048     driverlib.a : flash.obj (.text:FlashDisable)
                  01015a68    00000048     freertos_builds_CC3220SF_LAUNCHXL_release_ccs.lib : HwiPCC32XX_freertos.obj (.text:HwiP_dispatch)
                  01015ab0    00000048     mqtt_release.a : mqttclient.oem4 (.text:MQTTClient_set)
                  01015af8    00000048     driverlib.a : prcm.obj (.text:PRCMLPDSEnter)
                  01015b40    00000048                 : prcm.obj (.text:PRCMPeripheralClkEnable)
                  01015b88    00000048     drivers_cc32xx.aem4 : PowerCC32XX.oem4 (.text:Power_releaseConstraint)
                  01015bd0    00000048     slnetsock_release.a : slnetsock.oem4 (.text:SlNetSock_connect)
                  01015c18    00000048                         : slnetsock.oem4 (.text:SlNetSock_init)
                  01015c60    00000048                         : slnetsock.oem4 (.text:SlNetSock_setOpt)
                  01015ca8    00000048     simplelink.a : eventreg.obj (.text:_SlDeviceFatalErrorEvtHdlr)
                  01015cf0    00000048                  : eventreg.obj (.text:_SlDeviceGeneralEvtHdlr)
                  01015d38    00000048                  : driver.obj (.text:_SlDrvBasicCmd)
                  01015d80    00000048                  : driver.obj (.text:_SlDrvSyncObjWaitTimeout)
                  01015dc8    00000048                  : eventreg.obj (.text:_SlNetAppEvtHdlr)
                  01015e10    00000048                  : eventreg.obj (.text:_SlNetAppRequestMemFree)
                  01015e58    00000048                  : eventreg.obj (.text:_SlSockEvtHdlr)
                  01015ea0    00000048                  : eventreg.obj (.text:_SlWlanEvtHdlr)
                  01015ee8    00000048     mqtt_release.a : client_core.oem4 (.text:bufUTF8WrTry)
                  01015f30    00000048                    : client_core.oem4 (.text:clCtxSetup)
                  01015f78    00000048     freertos_builds_CC3220SF_LAUNCHXL_release_ccs.lib : timers.obj (.text:prvSwitchTimerLists)
                  01015fc0    00000048     rtsv7M4_T_le_eabi.lib : fd_toi_t2.asm.obj (.text)
                  01016008    00000048     freertos_builds_CC3220SF_LAUNCHXL_release_ccs.lib : sleep.obj (.text:sleep)
                  01016050    00000048                                                       : list.obj (.text:uxListRemove)
                  01016098    00000048     mqtt_release.a : client_core.oem4 (.text:wrConnectVh)
                  010160e0    00000046     drivers_cc32xx.aem4 : TimerCC32XX.oem4 (.text:getPrescaler)
                  01016126    00000046     freertos_builds_CC3220SF_LAUNCHXL_release_ccs.lib : queue.obj (.text:xQueueCreateCountingSemaphore)
                  0101616c    00000044     drivers_cc32xx.aem4 : ADC.oem4 (.text:ADC_init)
                  010161b0    00000044     mqtt_release.a : client_core.oem4 (.text:MQTTClientCore_run)
                  010161f4    00000044                    : mqtt_net_func.oem4 (.text:MQTTNet_tcpRecv)
                  01016238    00000044                    : mqttclient.oem4 (.text:MqttClientCtxDelete)
                  0101627c    00000044     driverlib.a : prcm.obj (.text:PRCMLPDSRestoreInfoSet)
                  010162c0    00000044     drivers_cc32xx.aem4 : PWM.oem4 (.text:PWM_init)
                  01016304    00000044                         : PowerCC32XX_asm.oem4 (.text:PowerCC32XX_enterLPDS)
                  01016348    00000044                         : SPI.oem4 (.text:SPI_init)
                  0101638c    00000044     slnetsock_release.a : slnetutils.oem4 (.text:SlNetUtil_strTok)
                  010163d0    00000044     drivers_cc32xx.aem4 : Timer.oem4 (.text:Timer_init)
                  01016414    00000044                         : UART.oem4 (.text:UART_init)
                  01016458    00000044     rtsv7M4_T_le_eabi.lib : autoinit.c.obj (.text:__TI_auto_init_nobinit_nopinit:__TI_auto_init_nobinit_nopinit)
                  0101649c    00000044     freertos_builds_CC3220SF_LAUNCHXL_release_ccs.lib : queue.obj (.text:prvInitialiseNewQueue)
                  010164e0    00000044     rtsv7M4_T_le_eabi.lib : fd_tou_t2.asm.obj (.text)
                  01016524    00000044     ti_net_config.obj (.text:ti_net_SlNet_initConfig)
                  01016568    00000044     freertos_builds_CC3220SF_LAUNCHXL_release_ccs.lib : tasks.obj (.text:vTaskStepTick)
                  010165ac    00000044     mqtt_release.a : client_core.oem4 (.text:vhMsgSend)
                  010165f0    00000043     publish_task.obj (.text:BrokerCB)
                  01016633    00000001     --HOLE-- [fill = 0]
                  01016634    00000042     mqtt_release.a : mqtt_common.oem4 (.text:MQTT_packetBufRdRemlen)
                  01016676    00000042     freertos_builds_CC3220SF_LAUNCHXL_release_ccs.lib : memory.obj (.text:malloc)
                  010166b8    00000040     drivers_cc32xx.aem4 : ADC.oem4 (.text:ADC_open)
                  010166f8    00000040     simplelink.a : sl_socket.obj (.text:CountSetBits)
                  01016738    00000040     network_if.obj (.text:InitializeAppVariables)
                  01016778    00000040     mqtt_release.a : client_core.oem4 (.text:MQTTClientCore_registerCtxInfo)
                  010167b8    00000040     drivers_cc32xx.aem4 : PWM.oem4 (.text:PWM_open)
                  010167f8    00000040     driverlib.a : pin.obj (.text:PinModeSet)
                  01016838    00000040     drivers_cc32xx.aem4 : SPI.oem4 (.text:SPI_open)
                  01016878    00000040     network_if.obj (.text:SimpleLinkGeneralEventHandler)
                  010168b8    00000040     slnetsock_release.a : slnetsock.oem4 (.text:SlNetSock_bind)
                  010168f8    00000040     drivers_cc32xx.aem4 : Timer.oem4 (.text:Timer_open)
                  01016938    00000040                         : UART.oem4 (.text:UART_open)
                  01016978    00000040                         : UDMACC32XX.oem4 (.text:UDMACC32XX_init)
                  010169b8    00000040     simplelink.a : driver.obj (.text:_SlDrvGlobalObjUnLock)
                  010169f8    00000040                  : driver.obj (.text:_SlFindAndReleasePendingCmd)
                  01016a38    00000040                  : spawn.obj (.text:_SlInternalSpawnWaitForEvent)
                  01016a78    00000040                  : eventreg.obj (.text:_SlIsEventRegistered)
                  01016ab8    00000040     freertos_builds_CC3220SF_LAUNCHXL_release_ccs.lib : aeabi_portable.obj (.text:__aeabi_errno_addr)
                  01016af8    00000040     mqtt_release.a : mqttclient.oem4 (.text:_sl_ExtLib_ServerAckLockedWait)
                  01016b38    00000040     mqtt_if.obj (.text:jsmn_alloc_token)
                  01016b78    00000040     mqtt_release.a : client_core.oem4 (.text:netConnect)
                  01016bb8    00000040     rtsv7M4_T_le_eabi.lib : vsnprintf.c.obj (.text:vsnprintf)
                  01016bf8    0000003e     freertos_builds_CC3220SF_LAUNCHXL_release_ccs.lib : ClockP_freertos.obj (.text:ClockP_callbackFxn)
                  01016c36    0000003e     mqtt_release.a : mqtt_common.oem4 (.text:MQTT_packetAckWlistRemove)
                  01016c74    0000003e                    : mqtt_common.oem4 (.text:MQTT_packetBufTailWrRemlen)
                  01016cb2    0000003e     slnetsock_release.a : slnetsock.oem4 (.text:SlNetSock_close)
                  01016cf0    0000003e     simplelink.a : sl_socket.obj (.text:_SlSocketBuildAddress)
                  01016d2e    0000003e     rtsv7M4_T_le_eabi.lib : _printfi.c.obj (.text:_fcpy)
                  01016d6c    0000003e     mqtt_release.a : client_core.oem4 (.text:clCtxSeg1Send)
                  01016daa    0000003e                    : client_core.oem4 (.text:procPingrspRx)
                  01016de8    0000003e     freertos_builds_CC3220SF_LAUNCHXL_release_ccs.lib : pthread.obj (.text:pthread_setcancelstate)
                  01016e26    0000003e                                                       : semaphore.obj (.text:sem_post)
                  01016e64    0000003c     mqtt_release.a : client_core.oem4 (.text:MQTTClientCore_registerBuffers)
                  01016ea0    0000003c                    : mqttclient.oem4 (.text:MQTTClient_disconnect)
                  01016edc    0000003c                    : mqtt_common.oem4 (.text:MQTT_qos2PubCqCheck)
                  01016f18    0000003c     network_if.obj (.text:Network_IF_DisconnectFromAP)
                  01016f54    0000003c     driverlib.a : prcm.obj (.text:PRCMSlowClkCtrFastGet)
                  01016f90    0000003c     drivers_cc32xx.aem4 : PowerCC32XX.oem4 (.text:Power_setConstraint)
                  01016fcc    0000003c     simplelink.a : netapp.obj (.text:_SlNetAppCopyPingResultsToReport)
                  01017008    0000003c     mqtt_release.a : mqttclient.oem4 (.text:processDisconnCB)
                  01017044    0000003c     freertos_builds_CC3220SF_LAUNCHXL_release_ccs.lib : queue.obj (.text:prvCopyDataFromQueue)
                  01017080    0000003c                                                       : tasks.obj (.text:pvTaskGetThreadLocalStoragePointer)
                  010170bc    0000003c     mqtt_release.a : client_core.oem4 (.text:singleCtxRxPrepLocked)
                  010170f8    0000003c                    : client_core.oem4 (.text:tailIncorpMsgID)
                  01017134    0000003c     simplelink.a : sl_socket.obj (.text:to_mSec)
                  01017170    0000003c     freertos_builds_CC3220SF_LAUNCHXL_release_ccs.lib : sleep.obj (.text:usleep)
                  010171ac    0000003c                                                       : list.obj (.text:vListInsertEnd)
                  010171e8    0000003c                                                       : timers.obj (.text:xTimerCreate)
                  01017224    0000003a     slnetifwifi.a : slnetifwifi.obj (.text:SlNetIfWifi_getIPAddr)
                  0101725e    0000003a     drivers_cc32xx.aem4 : TimerCC32XX.oem4 (.text:TimerCC32XX_close)
                  01017298    0000003a                         : PWMTimerCC32XX.oem4 (.text:getPowerMgrId)
                  010172d2    0000003a     mqtt_release.a : mqtt_common.oem4 (.text:mqpProcVhMsgIdRx)
                  0101730c    00000038                    : client_core.oem4 (.text:MQTTClientCore_registerNetSvc)
                  01017344    00000038                    : mqtt_common.oem4 (.text:MQTT_qos2PubCqLogup)
                  0101737c    00000038     driverlib.a : prcm.obj (.text:PRCMLPDSEnterKeepDebugIf)
                  010173b4    00000038     slnetifwifi.a : slnetifwifi.obj (.text:SlNetIfWifi_recvFrom)
                  010173ec    00000038                   : slnetifwifi.obj (.text:SlNetIfWifi_sendTo)
                  01017424    00000038                   : slnetifwifi.obj (.text:SlNetIfWifi_socket)
                  0101745c    00000038     slnetsock_release.a : slnetif.oem4 (.text:SlNetIf_configCheck)
                  01017494    00000038                         : slnetsock.oem4 (.text:SlNetSock_listen)
                  010174cc    00000038                         : slnetutils.oem4 (.text:SlNetUtil_htonl)
                  01017504    00000038     drivers_cc32xx.aem4 : TimerCC32XX.oem4 (.text:TimerCC32XX_hwiIntFunction)
                  0101753c    00000038     mqtt_release.a : client_core.oem4 (.text:mqpAllocAtomic)
                  01017574    00000038     mqtt_if.obj (.text:myNodeAlloc)
                  010175ac    00000038     mqtt_release.a : client_core.oem4 (.text:netRecv)
                  010175e4    00000038     drivers_cc32xx.aem4 : PowerCC32XX.oem4 (.text:notify)
                  0101761c    00000038     freertos_builds_CC3220SF_LAUNCHXL_release_ccs.lib : timers.obj (.text:prvGetNextExpireTime)
                  01017654    00000038                                                       : port.obj (.text:prvTaskExitError)
                  0101768c    00000038     drivers_cc32xx.aem4 : UARTCC32XXDMA.oem4 (.text:startTxFifoEmptyClk)
                  010176c4    00000037     network_if.obj (.text:Network_IF_DeInitDriver)
                  010176fb    00000001     --HOLE-- [fill = 0]
                  010176fc    00000036     mqtt_release.a : mqtt_common.oem4 (.text:MQTT_packetPrepFh)
                  01017732    00000036     slnetifwifi.a : slnetifwifi.obj (.text:SlNetIfWifi_getHostByName)
                  01017768    00000036                   : slnetifwifi.obj (.text:SlNetIfWifi_select)
                  0101779e    00000036     driverlib.a : timer.obj (.text:TimerControlStall)
                  010177d4    00000036     mqtt_release.a : client_core.oem4 (.text:_procPubRecRx)
                  0101780a    00000036     freertos_builds_CC3220SF_LAUNCHXL_release_ccs.lib : timers.obj (.text:prvReloadTimer)
                  01017840    00000036     rtsv7M4_T_le_eabi.lib : strncpy.c.obj (.text:strncpy)
                  01017876    00000002     --HOLE-- [fill = 0]
                  01017878    00000034     driverlib.a : pin.obj (.text:PinModeGet)
                  010178ac    00000034     drivers_cc32xx.aem4 : PowerCC32XX.oem4 (.text:PowerCC32XX_restoreParkState)
                  010178e0    00000034     freertos_builds_CC3220SF_LAUNCHXL_release_ccs.lib : SemaphoreP_freertos.obj (.text:SemaphoreP_pend)
                  01017914    00000034     slnetsock_release.a : slnetutils.oem4 (.text:SlNetUtil_htons)
                  01017948    00000034     drivers_cc32xx.aem4 : TimerCC32XX.oem4 (.text:TimerCC32XX_freeTimerResource)
                  0101797c    00000034                         : UDMACC32XX.oem4 (.text:UDMACC32XX_close)
                  010179b0    00000034     timer500.obj (.text:callback500)
                  010179e4    00000034     freertos_builds_CC3220SF_LAUNCHXL_release_ccs.lib : mqueue.obj (.text:findInList)
                  01017a18    00000034     drivers_cc32xx.aem4 : TimerCC32XX.oem4 (.text:getPowerMgrId)
                  01017a4c    00000034     mqtt_release.a : client_core.oem4 (.text:groupCtxsKaSequence)
                  01017a80    00000034                    : client_core.oem4 (.text:mqpFreeLocked)
                  01017ab4    00000034                    : client_core.oem4 (.text:procLoopbackRecv)
                  01017ae8    00000034     freertos_builds_CC3220SF_LAUNCHXL_release_ccs.lib : timers.obj (.text:prvSampleTimeNow)
                  01017b1c    00000034                                                       : tasks.obj (.text:vTaskPlaceOnEventList)
                  01017b50    00000034     drivers_cc32xx.aem4 : UARTCC32XXDMA.oem4 (.text:writeFinishedDoCallback)
                  01017b84    00000032     mqtt_release.a : mqtt_common.oem4 (.text:MQTT_clCtxTimeoutInsert)
                  01017bb6    00000032                    : client_core.oem4 (.text:connectedStateRx)
                  01017be8    00000030     drivers_cc32xx.aem4 : PowerCC32XX.oem4 (.text:PowerCC32XX_restoreParkedPin)
                  01017c18    00000030     simplelink.a : fs.obj (.text:_SlFsStrlen)
                  01017c48    00000030     rtsv7M4_T_le_eabi.lib : snprintf.c.obj (.text:_outs)
                  01017c78    00000030                           : vsnprintf.c.obj (.text:_outs)
                  01017ca8    00000030     mqtt_release.a : client_core.oem4 (.text:ack2MsgIdUnlog)
                  01017cd8    00000030                    : client_core.oem4 (.text:clientDescInit)
                  01017d08    00000030                    : mqttclient.oem4 (.text:getAvailableClictxMem)
                  01017d38    00000030     freertos_builds_CC3220SF_LAUNCHXL_release_ccs.lib : tasks.obj (.text:prvResetNextTaskUnblockTime)
                  01017d68    00000030                                                       : list.obj (.text:vListInitialise)
                  01017d98    00000030                                                       : port.obj (.text:vPortExitCritical)
                  01017dc8    00000030                                                       : tasks.obj (.text:xTaskGetSchedulerState)
                  01017df8    0000002e     simplelink.a : cc_pal.obj (.text:Mutex_create_handle)
                  01017e26    0000002e     freertos_builds_CC3220SF_LAUNCHXL_release_ccs.lib : timers.obj (.text:pvTimerGetTimerID)
                  01017e54    0000002e     rtsv7M4_T_le_eabi.lib : i_tofd_t2.asm.obj (.text)
                  01017e82    00000002     --HOLE-- [fill = 0]
                  01017e84    0000002c     drivers_cc32xx.aem4 : GPIOCC32XX.oem4 (.text:GPIO_clearInt)
                  01017eb0    0000002c     freertos_builds_CC3220SF_LAUNCHXL_release_ccs.lib : HwiPCC32XX_freertos.obj (.text:HwiP_disable)
                  01017edc    0000002c     simplelink.a : cc_pal.obj (.text:NwpPowerOn)
                  01017f08    0000002c     driverlib.a : prcm.obj (.text:PRCMLPDSIntervalSet)
                  01017f34    0000002c     drivers_cc32xx.aem4 : PowerCC32XX.oem4 (.text:PowerCC32XX_getParkState)
                  01017f60    0000002c     freertos_builds_CC3220SF_LAUNCHXL_release_ccs.lib : SemaphoreP_freertos.obj (.text:SemaphoreP_createBinary)
                  01017f8c    0000002c     slnetifwifi.a : slnetifwifi.obj (.text:SlNetIfWifi_recv)
                  01017fb8    0000002c                   : slnetifwifi.obj (.text:SlNetIfWifi_send)
                  01017fe4    0000002c     simplelink.a : driver.obj (.text:_SlDrvSyncObjWaitForever)
                  01018010    0000002c     mqtt_release.a : client_core.oem4 (.text:doNetCloseRx)
                  0101803c    0000002c     mqtt_if.obj (.text:jsmn_fill_token)
                  01018068    0000002c     freertos_builds_CC3220SF_LAUNCHXL_release_ccs.lib : pthread_mutex.obj (.text:pthread_mutexattr_settype)
                  01018094    0000002c     mqtt_release.a : client_core.oem4 (.text:singleCtxAdjWaitSecsGet)
                  010180c0    0000002c     freertos_builds_CC3220SF_LAUNCHXL_release_ccs.lib : tasks.obj (.text:vTaskSetApplicationTaskTag)
                  010180ec    0000002c                                                       : port.obj (.text:xPortSysTickHandler)
                  01018118    0000002c                                                       : queue.obj (.text:xQueueCreateMutex)
                  01018144    0000002a     slnetsock_release.a : slnetutils.oem4 (.text:SlNetUtil_inetPton)
                  0101816e    0000002a     driverlib.a : timer.obj (.text:TimerLoadSet)
                  01018198    0000002a                 : timer.obj (.text:TimerPrescaleSet)
                  010181c2    0000002a     drivers_cc32xx.aem4 : UARTCC32XXDMA.oem4 (.text:UARTCC32XXDMA_readCancel)
                  010181ec    0000002a                         : UARTCC32XXDMA.oem4 (.text:UARTCC32XXDMA_writeCancel)
                  01018216    0000002a     mqtt_release.a : client_core.oem4 (.text:ack2MsgIdDispatch)
                  01018240    0000002a                    : client_core.oem4 (.text:pingReqSend)
                  0101826a    0000002a     freertos_builds_CC3220SF_LAUNCHXL_release_ccs.lib : queue.obj (.text:prvInitialiseMutex)
                  01018294    0000002a     mqtt_release.a : client_core.oem4 (.text:txPartSetup)
                  010182be    0000002a     freertos_builds_CC3220SF_LAUNCHXL_release_ccs.lib : queue.obj (.text:uxQueueMessagesWaiting)
                  010182e8    00000028                                                       : HwiPCC32XX_freertos.obj (.text:HwiP_inISR)
                  01018310    00000028     mqtt_release.a : mqtt_common.oem4 (.text:MQTT_packetBufWrUtf8)
                  01018338    00000028     driverlib.a : prcm.obj (.text:PRCMLPDSWakeupSourceEnable)
                  01018360    00000028                 : prcm.obj (.text:PRCMPeripheralClkDisable)
                  01018388    00000028     drivers_cc32xx.aem4 : PowerCC32XX.oem4 (.text:Power_registerNotify)
                  010183b0    00000028     slnetsock_release.a : slnetif.oem4 (.text:SlNetIf_getIfByID)
                  010183d8    00000028                         : slnetsock.oem4 (.text:SlNetSock_sdsIsSet)
                  01018400    00000028                         : slnetsock.oem4 (.text:SlNetSock_sdsSet)
                  01018428    00000028                         : slnetsock.oem4 (.text:SlNetSock_secAttribDelete)
                  01018450    00000028     simplelink.a : driver.obj (.text:_SlDrvProtectionObjLockWaitForever)
                  01018478    00000028                  : driver.obj (.text:_SlDrvProtectionObjUnLock)
                  010184a0    00000028                  : flowcont.obj (.text:_SlFlowContSet)
                  010184c8    00000028     mqtt_release.a : client_core.oem4 (.text:_procPubRelRx)
                  010184f0    00000028                    : mqttclient.oem4 (.text:_sl_ExtLib_AwaitedAckLockedSet)
                  01018518    00000028     chain_queue.obj (.text:add_to_chain_queue)
                  01018540    00000028     rtsv7M4_T_le_eabi.lib : memmov.c.obj (.text:memmove)
                  01018568    00000028     freertos_builds_CC3220SF_LAUNCHXL_release_ccs.lib : pthread.obj (.text:pthread_attr_setschedparam)
                  01018590    00000028                                                       : semaphore.obj (.text:sem_trywait)
                  010185b8    00000028                                                       : tasks.obj (.text:xTaskGetApplicationTaskTag)
                  010185e0    00000026     drivers_cc32xx.aem4 : List.oem4 (.text:List_put)
                  01018606    00000026                         : List.oem4 (.text:List_remove)
                  0101862c    00000026     mqtt_release.a : mqtt_common.oem4 (.text:MQTT_clCtxRemove)
                  01018652    00000026     freertos_builds_CC3220SF_LAUNCHXL_release_ccs.lib : pthread.obj (.text:_pthread_cleanup_pop)
                  01018678    00000026                                                       : queue.obj (.text:prvIsQueueFull)
                  0101869e    00000002     --HOLE-- [fill = 0]
                  010186a0    00000024     driverlib.a : interrupt.obj (.text:IntUnregister)
                  010186c4    00000024     drivers_cc32xx.aem4 : PowerCC32XX.oem4 (.text:PowerCC32XX_reset)
                  010186e8    00000024     slnetsock_release.a : slnetif.oem4 (.text:SlNetIf_getConnectionStatus)
                  0101870c    00000024     simplelink.a : driver.obj (.text:_SlDrvIsApiInProgress)
                  01018730    00000024                  : driver.obj (.text:_SlDrvStartMeasureTimeout)
                  01018754    00000024     rtsv7M4_T_le_eabi.lib : boot_cortex_m.c.obj (.text:_c_int00_noargs:_c_int00_noargs)
                  01018778    00000024     mqtt_release.a : client_core.oem4 (.text:conn2usedCtxs)
                  0101879c    00000024     chain_queue.obj (.text:create_chain_queue)
                  010187c0    00000024     control_queue.obj (.text:create_control_queue)
                  010187e4    00000024     publish_queue.obj (.text:create_publish_queue)
                  01018808    00000024     rtsv7M4_T_le_eabi.lib : memcmp.c.obj (.text:memcmp)
                  0101882c    00000024     freertos_builds_CC3220SF_LAUNCHXL_release_ccs.lib : queue.obj (.text:prvGetDisinheritPriorityAfterTimeout)
                  01018850    00000024     mqtt_release.a : client_core.oem4 (.text:recvHvecLoad)
                  01018874    00000024     freertos_builds_CC3220SF_LAUNCHXL_release_ccs.lib : semaphore.obj (.text:sem_getvalue)
                  01018898    00000024     simplelink.a : wlan.obj (.text:sl_WlanDisconnect)
                  010188bc    00000024     freertos_builds_CC3220SF_LAUNCHXL_release_ccs.lib : queue.obj (.text:vQueueDelete)
                  010188e0    00000024                                                       : tasks.obj (.text:vTaskInternalSetTimeOutState)
                  01018904    00000022     mqtt_release.a : mqtt_common.oem4 (.text:MQTT_packetProcMsgIdAckRx)
                  01018926    00000022     freertos_builds_CC3220SF_LAUNCHXL_release_ccs.lib : SemaphoreP_freertos.obj (.text:SemaphoreP_post)
                  01018948    00000022     debug.obj (.text:dbgEvent)
                  0101896a    00000022     freertos_builds_CC3220SF_LAUNCHXL_release_ccs.lib : pthread.obj (.text:pthread_attr_setdetachstate)
                  0101898c    00000020     drivers_cc32xx.aem4 : ADCCC32XX.oem4 (.text:ADCCC32XX_convertToMicroVolts)
                  010189ac    00000020     freertos_builds_CC3220SF_LAUNCHXL_release_ccs.lib : ClockP_freertos.obj (.text:ClockP_getCpuFreq)
                  010189cc    00000020                                                       : HwiPCC32XX_freertos.obj (.text:HwiP_restore)
                  010189ec    00000020     driverlib.a : interrupt.obj (.text:IntRegister)
                  01018a0c    00000020     mqtt_release.a : mqtt_common.oem4 (.text:MQTT_qos2PubCqReset)
                  01018a2c    00000020     drivers_cc32xx.aem4 : PowerCC32XX.oem4 (.text:Power_unregisterNotify)
                  01018a4c    00000020     slnetifwifi.a : slnetifwifi.obj (.text:SlNetIfWifi_accept)
                  01018a6c    00000020     parsing_queue.obj (.text:create_parsing_queue)
                  01018a8c    00000020     sensor_thread_queue.obj (.text:create_sensor_queue)
                  01018aac    00000020     drivers_cc32xx.aem4 : SPICC32XXDMA.oem4 (.text:getPowerMgrId)
                  01018acc    00000020                         : UARTCC32XXDMA.oem4 (.text:getPowerMgrId)
                  01018aec    00000020     freertos_builds_CC3220SF_LAUNCHXL_release_ccs.lib : queue.obj (.text:prvIsQueueEmpty)
                  01018b0c    00000020     rtsv7M4_T_le_eabi.lib : u_tofd_t2.asm.obj (.text)
                  01018b2c    00000020     freertos_builds_CC3220SF_LAUNCHXL_release_ccs.lib : semaphore.obj (.text:semaphorePend)
                  01018b4c    00000020     mqtt_release.a : client_core.oem4 (.text:session311fix)
                  01018b6c    00000020     publish_task.obj (.text:topic_subscribe_callback)
                  01018b8c    0000001e     freertos_builds_CC3220SF_LAUNCHXL_release_ccs.lib : ClockP_freertos.obj (.text:ClockP_start)
                  01018baa    0000001e                                                       : HwiPCC32XX_freertos.obj (.text:HwiP_Params_init)
                  01018bc8    0000001e     mqtt_release.a : client_core.oem4 (.text:MQTTClientCore_alloc)
                  01018be6    0000001e                    : client_core.oem4 (.text:MQTTClientCore_ctxRun)
                  01018c04    0000001e     slnetifwifi.a : slnetifwifi.obj (.text:SlNetIfWifi_bind)
                  01018c22    0000001e                   : slnetifwifi.obj (.text:SlNetIfWifi_connect)
                  01018c40    0000001e     driverlib.a : timer.obj (.text:TimerDisable)
                  01018c5e    0000001e                 : timer.obj (.text:TimerEnable)
                  01018c7c    0000001e     simplelink.a : driver.obj (.text:_SlDrvObjLockWaitForever)
                  01018c9a    0000001e                  : driver.obj (.text:_SlDrvObjUnLock)
                  01018cb8    0000001e                  : driver.obj (.text:_SlDrvSyncObjSignal)
                  01018cd6    0000001e     freertos_builds_CC3220SF_LAUNCHXL_release_ccs.lib : pthread.obj (.text:_pthread_runStub)
                  01018cf4    0000001e     timer70.obj (.text:callback70)
                  01018d12    0000001e     mqtt_if.obj (.text:jsmn_init)
                  01018d30    0000001e     drivers_cc32xx.aem4 : UDMACC32XX.oem4 (.text:postNotifyFxn)
                  01018d4e    0000001e     mqtt_release.a : client_core.oem4 (.text:procNetDataRecv)
                  01018d6c    0000001e                    : client_core.oem4 (.text:sessionDelete)
                  01018d8a    0000001c     freertos_builds_CC3220SF_LAUNCHXL_release_ccs.lib : ClockP_freertos.obj (.text:ClockP_Params_init)
                  01018da6    00000002     --HOLE-- [fill = 0]
                  01018da8    0000001c     uart_term.obj (.text:Message)
                  01018dc4    0000001c     driverlib.a : pin.obj (.text:PinToPadGet)
                  01018de0    0000001c     simplelink.a : device.obj (.text:_SlDeviceGetStartResponseConvert)
                  01018dfc    0000001c                  : spawn.obj (.text:_SlInternalIsItSpawnThread)
                  01018e18    0000001c     sensor_thread_queue.obj (.text:addSensor)
                  01018e34    0000001c     parsing_queue.obj (.text:addSubscribe)
                  01018e50    0000001c     publish_queue.obj (.text:add_to_publish_queue)
                  01018e6c    0000001c     mqtt_release.a : client_core.oem4 (.text:awaitsPkts)
                  01018e88    0000001c                    : client_core.oem4 (.text:doNetCloseTx)
                  01018ea4    0000001c     rtsv7M4_T_le_eabi.lib : memccpy.c.obj (.text:memccpy)
                  01018ec0    0000001c     mqtt_release.a : client_core.oem4 (.text:processRecv)
                  01018edc    0000001c     freertos_builds_CC3220SF_LAUNCHXL_release_ccs.lib : pthread.obj (.text:pthread_attr_init)
                  01018ef8    0000001c                                                       : pthread_mutex.obj (.text:pthread_mutexattr_init)
                  01018f14    0000001c                                                       : tasks.obj (.text:pvTaskIncrementMutexHeldCount)
                  01018f30    0000001c     mqtt_release.a : client_core.oem4 (.text:usedCtxsTOSort)
                  01018f4c    0000001a                    : mqtt_common.oem4 (.text:MQTT_packetAckWlistPurge)
                  01018f66    0000001a     freertos_builds_CC3220SF_LAUNCHXL_release_ccs.lib : PTLS.obj (.text:PTLS_taskDeleteHook)
                  01018f80    0000001a     slnetifwifi.a : slnetifwifi.obj (.text:SlNetIfWifi_listen)
                  01018f9a    0000001a     freertos_builds_CC3220SF_LAUNCHXL_release_ccs.lib : timers.obj (.text:prvTimerTask)
                  01018fb4    0000001a                                                       : pthread_mutex.obj (.text:pthread_mutex_destroy)
                  01018fce    00000018     mqtt_release.a : mqtt_common.oem4 (.text:MQTT_clCtxTimeoutUpdate)
                  01018fe6    00000002     --HOLE-- [fill = 0]
                  01018fe8    00000018     drivers_cc32xx.aem4 : PowerCC32XX.oem4 (.text:Power_idleFunc)
                  01019000    00000018                         : TimerCC32XX.oem4 (.text:TimerCC32XX_getCount)
                  01019018    00000018     driverlib.a : timer.obj (.text:TimerIntDisable)
                  01019030    00000018                 : timer.obj (.text:TimerIntEnable)
                  01019048    00000018                 : uart.obj (.text:UARTBusy)
                  01019060    00000018     drivers_cc32xx.aem4 : UART.oem4 (.text:UART_Params_init)
                  01019078    00000018     rtsv7M4_T_le_eabi.lib : snprintf.c.obj (.text:_outc)
                  01019090    00000018                           : vsnprintf.c.obj (.text:_outc)
                  010190a8    00000018     control_queue.obj (.text:add_to_control_queue)
                  010190c0    00000018     freertos_builds_CC3220SF_LAUNCHXL_release_ccs.lib : memory.obj (.text:free)
                  010190d8    00000018     mqtt_release.a : client_core.oem4 (.text:groupCtxsAdjWaitSecsGet)
                  010190f0    00000018                    : client_core.oem4 (.text:netClCtxFind)
                  01019108    00000018     control_queue.obj (.text:retrieve_from_control_queue)
                  01019120    00000018     publish_queue.obj (.text:retrieve_publish_queue)
                  01019138    00000018     rtsv7M4_T_le_eabi.lib : ll_mul_t2.asm.obj (.text)
                  01019150    00000018     freertos_builds_CC3220SF_LAUNCHXL_release_ccs.lib : semaphore.obj (.text:sem_wait)
                  01019168    00000018     rtsv7M4_T_le_eabi.lib : strcmp.c.obj (.text:strcmp)
                  01019180    00000018     freertos_builds_CC3220SF_LAUNCHXL_release_ccs.lib : tasks.obj (.text:xTaskGetTickCountFromISR)
                  01019198    00000016                                                       : ClockP_freertos.obj (.text:ClockP_setTimeout)
                  010191ae    00000016     mqtt_release.a : mqtt_net_func.oem4 (.text:MQTTNet_commClose)
                  010191c4    00000016                    : mqtt_common.oem4 (.text:MQTT_clCtxReset)
                  010191da    00000016                    : mqtt_common.oem4 (.text:MQTT_packetFree)
                  010191f0    00000016                    : mqtt_common.oem4 (.text:MQTT_packetInit)
                  01019206    00000016     driverlib.a : prcm.obj (.text:PRCMHIBRegRead)
                  0101921c    00000016                 : prcm.obj (.text:PRCMHIBRegWrite)
                  01019232    00000016     freertos_builds_CC3220SF_LAUNCHXL_release_ccs.lib : PTLS.obj (.text:PTLS_getBuf)
                  01019248    00000016                                                       : PTLS.obj (.text:PTLS_setBuf)
                  0101925e    00000016                                                       : SemaphoreP_freertos.obj (.text:SemaphoreP_Params_init)
                  01019274    00000016     simplelink.a : driver.obj (.text:_SlDrvMemZero)
                  0101928a    00000002     --HOLE-- [fill = 0]
                  0101928c    00000016     freertos_builds_CC3220SF_LAUNCHXL_release_ccs.lib : startup_cc32xx_ccs.obj (.text:resetISR)
                  010192a2    00000016     rtsv7M4_T_le_eabi.lib : strchr.c.obj (.text:strchr)
                  010192b8    00000014     driverlib.a : cpu.obj (.text:CPUcpsie)
                  010192cc    00000014                 : interrupt.obj (.text:IntVTableBaseSet)
                  010192e0    00000014     mqtt_release.a : mqttclient.oem4 (.text:MQTTClient_publish)
                  010192f4    00000014                    : mqtt_net_func.oem4 (.text:MQTTNet_rtcSecs)
                  01019308    00000014                    : mqtt_common.oem4 (.text:MQTT_packetAckWlistAppend)
                  0101931c    00000014                    : mqtt_common.oem4 (.text:MQTT_packetReset)
                  01019330    00000014     drivers_cc32xx.aem4 : PWM.oem4 (.text:PWM_Params_init)
                  01019344    00000014                         : PowerCC32XX.oem4 (.text:Power_getDependencyCount)
                  01019358    00000014                         : SPI.oem4 (.text:SPI_Params_init)
                  0101936c    00000014     slnetsock_release.a : slnetsock.oem4 (.text:SlNetSock_sdsClrAll)
                  01019380    00000014     mqtt_release.a : client_core.oem4 (.text:ack1WlRmfree)
                  01019394    00000014     freertos_builds_CC3220SF_LAUNCHXL_release_ccs.lib : tasks.obj (.text:prvDeleteTCB)
                  010193a8    00000014                                                       : pthread.obj (.text:pthread_attr_setstacksize)
                  010193bc    00000014                                                       : pthread_mutex.obj (.text:pthread_mutex_lock)
                  010193d0    00000014                                                       : pthread.obj (.text:pthread_self)
                  010193e4    00000014                                                       : semaphore.obj (.text:sem_destroy)
                  010193f8    00000014     rtsv7M4_T_le_eabi.lib : strcpy.c.obj (.text:strcpy)
                  0101940c    00000014                           : strlen.c.obj (.text:strlen)
                  01019420    00000014     publish_task.obj (.text:timerCallback)
                  01019434    00000014     mqtt_release.a : client_core.oem4 (.text:txPartBufP)
                  01019448    00000014                    : client_core.oem4 (.text:txPartReset)
                  0101945c    00000014     freertos_builds_CC3220SF_LAUNCHXL_release_ccs.lib : PowerCC32XX_freertos.obj (.text:vPortSuppressTicksAndSleep)
                  01019470    00000014                                                       : tasks.obj (.text:xTaskGetCurrentTaskHandle)
                  01019484    00000014                                                       : tasks.obj (.text:xTaskGetTickCount)
                  01019498    00000012                                                       : HwiPCC32XX_freertos.obj (.text:HwiP_delete)
                  010194aa    00000012     slnetifwifi.a : slnetifwifi.obj (.text:SlNetIfWifi_close)
                  010194bc    00000012     driverlib.a : timer.obj (.text:TimerIntClear)
                  010194ce    00000012     mqtt_release.a : client_core.oem4 (.text:mqpDoNotReportCor)
                  010194e0    00000012     drivers_cc32xx.aem4 : PWMTimerCC32XX.oem4 (.text:postNotifyFxn)
                  010194f2    00000012     mqtt_release.a : client_core.oem4 (.text:sessionResume)
                  01019504    00000012     rtsv7M4_T_le_eabi.lib : wcslen.c.obj (.text:wcslen)
                  01019516    00000010     ti_drivers_config.obj (.text:Board_init)
                  01019526    00000010     freertos_builds_CC3220SF_LAUNCHXL_release_ccs.lib : ClockP_freertos.obj (.text:ClockP_getSystemTickPeriod)
                  01019536    00000010     slnetsock_release.a : slnetsock.oem4 (.text:SlNetSock_secAttribCreate)
                  01019546    00000002     --HOLE-- [fill = 0]
                  01019548    00000010     driverlib.a : systick.obj (.text:SysTickDisable)
                  01019558    00000010                 : systick.obj (.text:SysTickEnable)
                  01019568    00000010     drivers_cc32xx.aem4 : Timer.oem4 (.text:Timer_Params_init)
                  01019578    00000010     simplelink.a : driver.obj (.text:_SlDrvDispatchHttpServerEvents)
                  01019588    00000010                  : driver.obj (.text:_SlDrvDispatchNetAppRequestEvents)
                  01019598    00000010                  : driver.obj (.text:_SlDrvIsSpawnOwnGlobalLock)
                  010195a8    00000010     mqtt_release.a : client_core.oem4 (.text:clCtxFreeup)
                  010195b8    00000010     ti_drivers_config.obj (.text:dmaErrorFxn)
                  010195c8    00000010     mqtt_release.a : client_core.oem4 (.text:isConnected)
                  010195d8    00000010                    : client_core.oem4 (.text:isValidUTF8String)
                  010195e8    00000010                    : client_core.oem4 (.text:mqpFree)
                  010195f8    00000010     freertos_builds_CC3220SF_LAUNCHXL_release_ccs.lib : list.obj (.text:vListInitialiseItem)
                  01019608    00000010                                                       : tasks.obj (.text:vTaskSuspendAll)
                  01019618    0000000e     mqtt_release.a : mqttclient.oem4 (.text:MQTTClient_subscribe)
                  01019626    0000000e     drivers_cc32xx.aem4 : PowerCC32XX.oem4 (.text:Power_getTransitionLatency)
                  01019634    0000000e     simplelink.a : driver.obj (.text:_SlDrvResetCmdExt)
                  01019642    0000000e     mqtt_release.a : mqttclient.oem4 (.text:_sl_ExtLib_AwaitedAckSet)
                  01019650    0000000e                    : client_core.oem4 (.text:connSentStateRx)
                  0101965e    0000000e     rtsv7M4_T_le_eabi.lib : copy_decompress_none.c.obj (.text:decompress:none:__TI_decompress_none)
                  0101966c    0000000e     drivers_cc32xx.aem4 : SPICC32XXDMA.oem4 (.text:postNotifyFxn)
                  0101967a    0000000e     simplelink.a : cc_pal.obj (.text:spi_Close)
                  01019688    0000000e     main_freertos.obj (.text:vApplicationStackOverflowHook)
                  01019696    0000000c     driverlib.a : cpu.obj (.text:CPUwfi)
                  010196a2    0000000c     freertos_builds_CC3220SF_LAUNCHXL_release_ccs.lib : HwiPCC32XX_freertos.obj (.text:HwiP_clearInterrupt)
                  010196ae    0000000c                                                       : HwiPCC32XX_freertos.obj (.text:HwiP_disableInterrupt)
                  010196ba    0000000c                                                       : HwiPCC32XX_freertos.obj (.text:HwiP_enableInterrupt)
                  010196c6    0000000c     mqtt_release.a : client_core.oem4 (.text:MQTTClientCore_sendConnectMsg)
                  010196d2    0000000c                    : mqtt_common.oem4 (.text:MQTT_secureConnStructInit)
                  010196de    00000002     --HOLE-- [fill = 0]
                  010196e0    0000000c     network_if.obj (.text:Network_IF_ResetMCUStateMachine)
                  010196ec    0000000c     simplelink.a : cc_pal.obj (.text:NwpMaskInterrupt)
                  010196f8    0000000c                  : cc_pal.obj (.text:NwpUnMaskInterrupt)
                  01019704    0000000c     drivers_cc32xx.aem4 : PowerCC32XX.oem4 (.text:Power_getConstraintMask)
                  01019710    0000000c     freertos_builds_CC3220SF_LAUNCHXL_release_ccs.lib : SemaphoreP_freertos.obj (.text:SemaphoreP_delete)
                  0101971c    0000000c     network_if.obj (.text:SimpleLinkHttpServerEventHandler)
                  01019728    0000000c     network_if.obj (.text:SimpleLinkNetAppRequestEventHandler)
                  01019734    0000000c     simplelink.a : device.obj (.text:_SlDeviceResetRequestInitCompletedCB)
                  01019740    0000000c     mqtt_release.a : client_core.oem4 (.text:_txPartReset)
                  0101974c    0000000c     rtsv7M4_T_le_eabi.lib : s_copysign.c.obj (.text:copysign)
                  01019758    0000000c                           : copy_zero_init.c.obj (.text:decompress:ZI:__TI_zero_init)
                  01019764    0000000c     drivers_cc32xx.aem4 : TimerCC32XX.oem4 (.text:postNotifyFxn)
                  01019770    0000000c                         : UARTCC32XXDMA.oem4 (.text:postNotifyFxn)
                  0101977c    0000000c     publish_task.obj (.text:timerLEDCallback)
                  01019788    0000000c     driverlib.a : udma.obj (.text:uDMAErrorStatusClear)
                  01019794    0000000c                 : udma.obj (.text:uDMAErrorStatusGet)
                  010197a0    0000000c     freertos_builds_CC3220SF_LAUNCHXL_release_ccs.lib : tasks.obj (.text:vTaskMissedYield)
                  010197ac    0000000a     drivers_cc32xx.aem4 : ADC.oem4 (.text:ADC_Params_init)
                  010197b6    0000000a                         : ADC.oem4 (.text:ADC_close)
                  010197c0    0000000a                         : ADC.oem4 (.text:ADC_convert)
                  010197ca    0000000a                         : ADC.oem4 (.text:ADC_convertToMicroVolts)
                  010197d4    0000000a     driverlib.a : interrupt.obj (.text:IntMasterEnable)
                  010197de    0000000a     drivers_cc32xx.aem4 : PWM.oem4 (.text:PWM_setDuty)
                  010197e8    0000000a                         : PWM.oem4 (.text:PWM_start)
                  010197f2    0000000a                         : SPI.oem4 (.text:SPI_close)
                  010197fc    0000000a                         : SPI.oem4 (.text:SPI_transfer)
                  01019806    0000000a     network_if.obj (.text:SimpleLinkNetAppRequestMemFreeEventHandler)
                  01019810    0000000a     drivers_cc32xx.aem4 : Timer.oem4 (.text:Timer_close)
                  0101981a    0000000a                         : Timer.oem4 (.text:Timer_start)
                  01019824    0000000a                         : Timer.oem4 (.text:Timer_stop)
                  0101982e    0000000a                         : UART.oem4 (.text:UART_control)
                  01019838    0000000a                         : UART.oem4 (.text:UART_readPolling)
                  01019842    0000000a                         : UART.oem4 (.text:UART_writePolling)
                  0101984c    0000000a     simplelink.a : device.obj (.text:sl_Task)
                  01019856    00000008     drivers_cc32xx.aem4 : ADCCC32XX.oem4 (.text:ADCCC32XX_init)
                  0101985e    00000008     freertos_builds_CC3220SF_LAUNCHXL_release_ccs.lib : ClockP_freertos.obj (.text:ClockP_getSystemTicks)
                  01019866    00000008     mqtt_release.a : client_core.oem4 (.text:MQTTClientCore_sendSubMsg)
                  0101986e    00000008                    : mqtt_net_func.oem4 (.text:MQTTNet_tcpSend)
                  01019876    00000008     driverlib.a : prcm.obj (.text:PRCMSleepEnter)
                  0101987e    00000008     simplelink.a : cc_pal.obj (.text:TimerGetCurrentTimestamp)
                  01019886    00000008     drivers_cc32xx.aem4 : SPICC32XXDMA.oem4 (.text:blockingTransferCallback)
                  0101988e    00000008                         : UARTCC32XXDMA.oem4 (.text:readSemCallback)
                  01019896    00000008     mqtt_release.a : client_core.oem4 (.text:txPartAddup)
                  0101989e    00000008     drivers_cc32xx.aem4 : UARTCC32XXDMA.oem4 (.text:writeSemCallback)
                  010198a6    00000006                         : ADCCC32XX.oem4 (.text:ADCCC32XX_control)
                  010198ac    00000006                         : PWMTimerCC32XX.oem4 (.text:PWMTimerCC32XX_control)
                  010198b2    00000006                         : SPICC32XXDMA.oem4 (.text:SPICC32XXDMA_control)
                  010198b8    00000006                         : TimerCC32XX.oem4 (.text:TimerCC32XX_control)
                  010198be    00000006     driverlib.a : utils.obj (.text:UtilsDelay)
                  010198c4    00000006     mqtt_release.a : client_core.oem4 (.text:ack2MsgIdLogup)
                  010198ca    00000006                    : client_core.oem4 (.text:qos2PubRxIsDone)
                  010198d0    00000006                    : client_core.oem4 (.text:qos2PubRxLogup)
                  010198d6    00000006                    : client_core.oem4 (.text:qos2PubRxUnlog)
                  010198dc    00000004     drivers_cc32xx.aem4 : SPICC32XXDMA.oem4 (.text:SPICC32XXDMA_init)
                  010198e0    00000004     slnetsock_release.a : slnetif.oem4 (.text:SlNetIf_init)
                  010198e4    00000004                         : slnetutils.oem4 (.text:SlNetUtil_init)
                  010198e8    00000004     rtsv7M4_T_le_eabi.lib : pre_init.c.obj (.text:_system_pre_init)
                  010198ec    00000004                           : exit.c.obj (.text:abort:abort)
                  010198f0    00000004     mqtt_release.a : mqttclient.oem4 (.text:mutexLockup)
                  010198f4    00000004                    : mqttclient.oem4 (.text:mutexUnlock)

.const     0    010198f8    00000ae2     
                  010198f8    00000101     rtsv7M4_T_le_eabi.lib : ctype.c.obj (.const:.string:_ctypes_)
                  010199f9    00000003     mqtt_release.a : mqttclient.oem4 (.const:.string:$P$T0$1)
                  010199fc    00000100     driverlib.a : pin.obj (.const:g_ulPinToPadMap)
                  01019afc    000000d4                 : interrupt.obj (.const:g_pulRegs)
                  01019bd0    000000a8                 : prcm.obj (.const:PRCM_PeriphRegsList)
                  01019c78    00000078     ti_drivers_config.obj (.const:spiCC32XXDMAHWAttrs)
                  01019cf0    00000070     simplelink.a : driver.obj (.const:OpcodeTranslateTable)
                  01019d60    0000005a     publish_task.obj (.const:.string)
                  01019dba    00000002     mqtt_release.a : client_core.oem4 (.const:.string:MQTTClientCore_loopData)
                  01019dbc    00000050     simplelink.a : driver.obj (.const:_SlActionLookupTable)
                  01019e0c    00000040     ti_drivers_config.obj (.const:PowerCC32XX_config)
                  01019e4c    00000030     ti_drivers_config.obj (.const:timerCC32XXHWAttrs)
                  01019e7c    00000028     drivers_cc32xx.aem4 : UARTCC32XXDMA.oem4 (.const:UARTCC32XXDMA_fxnTable)
                  01019ea4    00000024                         : PWMTimerCC32XX.oem4 (.const:PWMTimerCC32XX_fxnTable)
                  01019ec8    00000024     ti_drivers_config.obj (.const:Timer_config)
                  01019eec    00000024     drivers_cc32xx.aem4 : UART.oem4 (.const:UART_defaultParams)
                  01019f10    00000024     ti_drivers_config.obj (.const:uartCC32XXHWAttrs0)
                  01019f34    00000021     drivers_cc32xx.aem4 : GPIOCC32XX.oem4 (.const:.string:pinTable)
                  01019f55    00000021     ti_drivers_config.obj (.const)
                  01019f76    00000002     --HOLE-- [fill = 0]
                  01019f78    00000020     simplelink.a : driver.obj (.const:RxMsgClassLUT)
                  01019f98    00000020     drivers_cc32xx.aem4 : SPI.oem4 (.const:SPI_defaultParams)
                  01019fb8    00000020     simplelink.a : device.obj (.const:StartResponseLUT)
                  01019fd8    00000020     drivers_cc32xx.aem4 : TimerCC32XX.oem4 (.const:TimerCC32XX_fxnTable)
                  01019ff8    00000020                         : PWMTimerCC32XX.oem4 (.const:gpioPinIndexes)
                  0101a018    00000018                         : ADCCC32XX.oem4 (.const:ADCCC32XX_fxnTable)
                  0101a030    00000018     ti_drivers_config.obj (.const:PWM_config)
                  0101a048    00000018     drivers_cc32xx.aem4 : PWM.oem4 (.const:PWM_defaultParams)
                  0101a060    00000018                         : SPICC32XXDMA.oem4 (.const:SPICC32XXDMA_fxnTable)
                  0101a078    00000018     ti_drivers_config.obj (.const:SPI_config)
                  0101a090    00000018     driverlib.a : interrupt.obj (.const:g_pulDisRegs)
                  0101a0a8    00000018                 : interrupt.obj (.const:g_pulEnRegs)
                  0101a0c0    00000018                 : interrupt.obj (.const:g_pulUnpendRegs)
                  0101a0d8    00000017     network_if.obj (.const:.string:$P$T2$3)
                  0101a0ef    00000016     network_if.obj (.const:.string:$P$T0$1)
                  0101a105    00000015     network_if.obj (.const:.string:$P$T1$2)
                  0101a11a    00000002     --HOLE-- [fill = 0]
                  0101a11c    00000014     publish_task.obj (.const:$P$T0$1)
                  0101a130    00000014     simplelink.a : cc_pal.obj (.const:$P$T0$1)
                  0101a144    00000014                  : device.obj (.const:$P$T0$1)
                  0101a158    00000014                  : driver.obj (.const:$P$T0$1)
                  0101a16c    00000014                  : fs.obj (.const:$P$T0$1)
                  0101a180    00000014                  : cc_pal.obj (.const:$P$T1$2)
                  0101a194    00000014                  : driver.obj (.const:$P$T2$3)
                  0101a1a8    00000014     ti_drivers_config.obj (.const:GPIOCC32XX_config)
                  0101a1bc    00000014     slnetifwifi.a : slnetifwifi.obj (.const:StartSecOptName)
                  0101a1d0    00000014     drivers_cc32xx.aem4 : GPIOCC32XX.oem4 (.const:gpioBaseAddresses)
                  0101a1e4    00000014                         : UARTCC32XXDMA.oem4 (.const:parityType)
                  0101a1f8    00000014                         : GPIOCC32XX.oem4 (.const:powerResources)
                  0101a20c    00000010     mqtt_release.a : mqtt_net_func.oem4 (.const:$P$T0$1)
                  0101a21c    00000010                    : mqtt_net_func.oem4 (.const:$P$T1$2)
                  0101a22c    00000010     network_if.obj (.const:$P$T3$4)
                  0101a23c    00000010     simplelink.a : sl_socket.obj (.const:_SlCtrlSockAddr)
                  0101a24c    00000010                  : sl_socket.obj (.const:_SlCtrlSockRelease)
                  0101a25c    00000010     drivers_cc32xx.aem4 : UARTCC32XXDMA.oem4 (.const:dataLength)
                  0101a26c    00000010                         : PWMTimerCC32XX.oem4 (.const:gpioBaseAddresses)
                  0101a27c    00000010     slnetifwifi.a : slnetifwifi.obj (.const:socketType)
                  0101a28c    00000010     drivers_cc32xx.aem4 : PWMTimerCC32XX.oem4 (.const:timerBaseAddresses)
                  0101a29c    0000000c     ti_drivers_config.obj (.const:ADC_config)
                  0101a2a8    0000000c     ti_drivers_config.obj (.const:UART_config)
                  0101a2b4    0000000c     drivers_cc32xx.aem4 : Timer.oem4 (.const:defaultParams)
                  0101a2c0    0000000c                         : SPICC32XXDMA.oem4 (.const:dmaNullConfig)
                  0101a2cc    0000000c                         : SPICC32XXDMA.oem4 (.const:dmaRxConfig)
                  0101a2d8    0000000c                         : SPICC32XXDMA.oem4 (.const:dmaTxConfig)
                  0101a2e4    0000000c     ti_drivers_config.obj (.const:udmaCC3220SHWAttrs)
                  0101a2f0    00000008     drivers_cc32xx.aem4 : ADC.oem4 (.const:ADC_defaultParams)
                  0101a2f8    00000008     ti_drivers_config.obj (.const:UDMACC32XX_config)
                  0101a300    00000008     freertos_builds_CC3220SF_LAUNCHXL_release_ccs.lib : port.obj (.const)
                  0101a308    00000008     simplelink.a : driver.obj (.const:g_H2NCnysPattern)
                  0101a310    00000008                  : driver.obj (.const:g_H2NSyncPattern)
                  0101a318    00000008     drivers_cc32xx.aem4 : SPICC32XXDMA.oem4 (.const:mode)
                  0101a320    00000008                         : GPIOCC32XX.oem4 (.const:outPinTypes)
                  0101a328    00000008     ti_drivers_config.obj (.const:pwmTimerCC32XXHWAttrs)
                  0101a330    00000008     drivers_cc32xx.aem4 : UARTCC32XXDMA.oem4 (.const:stopBits)
                  0101a338    00000008                         : PWMTimerCC32XX.oem4 (.const:timerHalves)
                  0101a340    00000006                         : GPIOCC32XX.oem4 (.const:.string:interruptType)
                  0101a346    00000006                         : GPIOCC32XX.oem4 (.const:inPinTypes)
                  0101a34c    00000006                         : GPIOCC32XX.oem4 (.const:outPinStrengths)
                  0101a352    00000005     mqtt_release.a : client_core.oem4 (.const:.string:$P$T2$2)
                  0101a357    00000001     --HOLE-- [fill = 0]
                  0101a358    00000004     simplelink.a : sl_socket.obj (.const:$P$T0$1)
                  0101a35c    00000004                  : wlan.obj (.const:$P$T0$1)
                  0101a360    00000004                  : sl_socket.obj (.const:$P$T1$2)
                  0101a364    00000004                  : wlan.obj (.const:$P$T1$2)
                  0101a368    00000004                  : sl_socket.obj (.const:$P$T2$3)
                  0101a36c    00000004     mqtt_release.a : client_core.oem4 (.const:.string:$P$T1$1)
                  0101a370    00000004     drivers_cc32xx.aem4 : GPIOCC32XX.oem4 (.const:.string:portInterruptIds)
                  0101a374    00000004     simplelink.a : sl_socket.obj (.const:_SlAcceptCmdCtrl)
                  0101a378    00000004                  : device.obj (.const:_SlDeviceGetCmdCtrl)
                  0101a37c    00000004                  : fs.obj (.const:_SlFsCloseCmdCtrl)
                  0101a380    00000004                  : fs.obj (.const:_SlFsOpenCmdCtrl)
                  0101a384    00000004                  : fs.obj (.const:_SlFsWriteCmdCtrl)
                  0101a388    00000004                  : netapp.obj (.const:_SlGetHostByNameCtrl)
                  0101a38c    00000004                  : sl_socket.obj (.const:_SlGetSockOptCmdCtrl)
                  0101a390    00000004                  : sl_socket.obj (.const:_SlListenCmdCtrl)
                  0101a394    00000004                  : netapp.obj (.const:_SlNetAppSendResponseCmdCtrl)
                  0101a398    00000004                  : netapp.obj (.const:_SlNetAppSendTokenValueCmdCtrl)
                  0101a39c    00000004                  : netcfg.obj (.const:_SlNetCfgGetCmdCtrl)
                  0101a3a0    00000004                  : sl_socket.obj (.const:_SlRecvCmdCtrl)
                  0101a3a4    00000004                  : sl_socket.obj (.const:_SlRecvfomCmdCtrl)
                  0101a3a8    00000004                  : sl_socket.obj (.const:_SlSelectCmdCtrl)
                  0101a3ac    00000004                  : sl_socket.obj (.const:_SlSendCmdCtrl)
                  0101a3b0    00000004                  : sl_socket.obj (.const:_SlSetSockOptCmdCtrl)
                  0101a3b4    00000004                  : sl_socket.obj (.const:_SlSockCloseCmdCtrl)
                  0101a3b8    00000004                  : sl_socket.obj (.const:_SlSockSocketCmdCtrl)
                  0101a3bc    00000004                  : device.obj (.const:_SlStopCmdCtrl)
                  0101a3c0    00000004                  : wlan.obj (.const:_SlWlanCfgGetCmdCtrl)
                  0101a3c4    00000004                  : wlan.obj (.const:_SlWlanSetModeCmdCtrl)
                  0101a3c8    00000004     ti_drivers_config.obj (.const:adcCC32XXHWAttrs)
                  0101a3cc    00000004     freertos_builds_CC3220SF_LAUNCHXL_release_ccs.lib : pthread.obj (.const)
                  0101a3d0    00000004                                                       : tasks.obj (.const)
                  0101a3d4    00000003     mqtt_release.a : mqttclient.oem4 (.const:MQTTClient_qos)
                  0101a3d7    00000001     --HOLE-- [fill = 0]
                  0101a3d8    00000002     freertos_builds_CC3220SF_LAUNCHXL_release_ccs.lib : pthread.obj (.const:.string)

.cinit     0    0101a3e0    00000200     
                  0101a3e0    000001da     (.cinit..data.load) [load image, compression = lzss]
                  0101a5ba    00000002     --HOLE-- [fill = 0]
                  0101a5bc    0000000c     (__TI_handler_table)
                  0101a5c8    00000008     (.cinit..bss.load) [load image, compression = zero_init]
                  0101a5d0    00000010     (__TI_cinit_table)

.init_array 
*          0    01000800    00000000     UNINITIALIZED

.ramVecs   0    20000000    0000030c     NOLOAD SECTION
                  20000000    0000030c     freertos_builds_CC3220SF_LAUNCHXL_release_ccs.lib : startup_cc32xx_ccs.obj (.ramVecs)

.bss       0    20000400    00009be5     UNINITIALIZED
                  20000400    00008000     freertos_builds_CC3220SF_LAUNCHXL_release_ccs.lib : heap_4.obj (.bss:ucHeap)
                  20008400    00000800     mqtt_release.a : mqttclient.oem4 (.bss:MQTTClient_buffer)
                  20008c00    00000400     ti_drivers_config.obj (.bss:dmaControlTable)
                  20009000    000003fc     (.common:g_CB)
                  200093fc    000002b0     (.common:clients)
                  200096ac    0000012c     (.common:PowerCC32XX_contextSave)
                  200097d8    000000d0     mqtt_release.a : mqttclient.oem4 (.bss:MQTTClient_ctx)
                  200098a8    000000c8     mqtt_if.obj (.bss:Nodes$6)
                  20009970    000000c8     freertos_builds_CC3220SF_LAUNCHXL_release_ccs.lib : tasks.obj (.bss:pxReadyTasksLists)
                  20009a38    0000009c     (.common:timerCC32XXObjects)
                  20009ad4    00000088     (.common:spiCC32XXDMAObjects)
                  20009b5c    00000080     slnetsock_release.a : slnetsock.oem4 (.bss:VirtualSockets)
                  20009bdc    0000006c     (.common:uartCC32XXObjects0)
                  20009c48    00000050     mqtt_if.obj (.bss:t$2)
                  20009c98    00000050     mqtt_if.obj (.bss:t$4)
                  20009ce8    00000048     mqtt_release.a : mqttclient.oem4 (.bss:MQTTClient_packet)
                  20009d30    00000048     (.common:pwmTimerCC32XXObjects)
                  20009d78    0000002c     mqtt_if.obj (.bss:tempMutex$5)
                  20009da4    0000002c     (.common:GlobalLockObj)
                  20009dd0    00000028     (.common:g_SlInternalSpawnCB)
                  20009df8    00000024     (.common:g_ucConnectionSSID)
                  20009e1c    00000020     drivers_cc32xx.aem4 : GPIOCC32XX.oem4 (.bss:gpioCallbackInfo)
                  20009e3c    0000001c     slnetsock_release.a : slnetsock.oem4 (.bss:VirtualSocketSem)
                  20009e58    00000018     mqtt_release.a : client_core.oem4 (.bss:MQTTClientCore_recvHvec)
                  20009e70    00000014     drivers_cc32xx.aem4 : UDMACC32XX.oem4 (.bss:postNotifyObj)
                  20009e84    00000014                         : GPIOCC32XX.oem4 (.bss:powerNotifyObj)
                  20009e98    00000014     freertos_builds_CC3220SF_LAUNCHXL_release_ccs.lib : timers.obj (.bss:xActiveTimerList1)
                  20009eac    00000014                                                       : timers.obj (.bss:xActiveTimerList2)
                  20009ec0    00000014                                                       : tasks.obj (.bss:xDelayedTaskList1)
                  20009ed4    00000014                                                       : tasks.obj (.bss:xDelayedTaskList2)
                  20009ee8    00000014                                                       : tasks.obj (.bss:xPendingReadyList)
                  20009efc    00000014                                                       : tasks.obj (.bss:xSuspendedTaskList)
                  20009f10    00000014                                                       : tasks.obj (.bss:xTasksWaitingTermination)
                  20009f24    00000010     mqtt_if.obj (.bss:tempTopic$8)
                  20009f34    00000010     (.common:MQTTClient_Lib_CB)
                  20009f44    0000000c     mqtt_if.obj (.bss:p$1)
                  20009f50    0000000c     mqtt_if.obj (.bss:p$3)
                  20009f5c    0000000c     (.common:DeviceCB)
                  20009f68    0000000c     (.common:Msg)
                  20009f74    00000008     freertos_builds_CC3220SF_LAUNCHXL_release_ccs.lib : tasks.obj (.bss)
                  20009f7c    00000008                                                       : timers.obj (.bss)
                  20009f84    00000008                                                       : heap_4.obj (.bss:xStart)
                  20009f8c    00000008     (.common:g_ucConnectionBSSID)
                  20009f94    00000008     (.common:spiCC32XXSDMAscratchBuf)
                  20009f9c    00000008     (.common:udmaCC3220SObject)
                  20009fa4    00000004     chain_queue.obj (.bss)
                  20009fa8    00000004     control_queue.obj (.bss)
                  20009fac    00000004     drivers_cc32xx.aem4 : GPIOCC32XX.oem4 (.bss)
                  20009fb0    00000004     freertos_builds_CC3220SF_LAUNCHXL_release_ccs.lib : aeabi_portable.obj (.bss:main_reent)
                  20009fb4    00000004     parsing_queue.obj (.bss)
                  20009fb8    00000004     publish_queue.obj (.bss)
                  20009fbc    00000004     sensor_thread_queue.obj (.bss)
                  20009fc0    00000004     timer500.obj (.bss)
                  20009fc4    00000004     drivers_cc32xx.aem4 : TimerCC32XX.oem4 (.bss:timerState)
                  20009fc8    00000004     uart_term.obj (.bss)
                  20009fcc    00000004     (.common:adcCC32XXObjects)
                  20009fd0    00000004     (.common:appQueue)
                  20009fd4    00000004     (.common:connected)
                  20009fd8    00000004     (.common:deinit)
                  20009fdc    00000004     (.common:timer0)
                  20009fe0    00000002     (.common:MQTTClient_waitSecs)
                  20009fe2    00000002     (.common:g_usConnectIndex)
                  20009fe4    00000001     (.common:RxIrqCnt)

.data      0    20009fe8    00000d84     UNINITIALIZED
                  20009fe8    00000800     freertos_builds_CC3220SF_LAUNCHXL_release_ccs.lib : HwiPCC32XX_freertos.obj (.data:HwiP_dispatchTable)
                  2000a7e8    0000016c     drivers_cc32xx.aem4 : PowerCC32XX.oem4 (.data:PowerCC32XX_module)
                  2000a954    000000f8     ti_drivers_config.obj (.data:parkInfo)
                  2000aa4c    00000058     slnetifwifi.a : slnetifwifi.obj (.data:SlNetIfConfigWifi)
                  2000aaa4    00000038     ti_drivers_config.obj (.data:gpioCallbackFunctions)
                  2000aadc    00000038     ti_drivers_config.obj (.data:gpioPinConfigs)
                  2000ab14    00000035     mqtt_release.a : client_core.oem4 (.data)
                  2000ab49    00000001     drivers_cc32xx.aem4 : ADC.oem4 (.data)
                  2000ab4a    00000001                         : PWM.oem4 (.data)
                  2000ab4b    00000001                         : SPI.oem4 (.data)
                  2000ab4c    00000034     freertos_builds_CC3220SF_LAUNCHXL_release_ccs.lib : tasks.obj (.data)
                  2000ab80    00000028     mqtt_release.a : mqttclient.oem4 (.data:MQTTClient_net)
                  2000aba8    00000024     simplelink.a : eventreg.obj (.data:g_LibsEvents)
                  2000abcc    00000024                  : eventreg.obj (.data:g_UserEvents)
                  2000abf0    0000001c     mqtt_if.obj (.data:mMQTTContext)
                  2000ac0c    00000018     freertos_builds_CC3220SF_LAUNCHXL_release_ccs.lib : heap_4.obj (.data)
                  2000ac24    00000018                                                       : port.obj (.data)
                  2000ac3c    00000018     publish_task.obj (.data:mqttClientParams)
                  2000ac54    00000018     publish_task.obj (.data:mqttConnParams)
                  2000ac6c    00000014     freertos_builds_CC3220SF_LAUNCHXL_release_ccs.lib : pthread.obj (.data:defaultPthreadAttrs)
                  2000ac80    00000010                                                       : mqueue.obj (.data:defaultAttrs)
                  2000ac90    00000010     mqtt_if.obj (.data)
                  2000aca0    0000000d     publish_task.obj (.data:ClientId)
                  2000acad    00000001     drivers_cc32xx.aem4 : Timer.oem4 (.data)
                  2000acae    00000001                         : UART.oem4 (.data)
                  2000acaf    00000001     slnetsock_release.a : slnetsock.oem4 (.data)
                  2000acb0    0000000c     freertos_builds_CC3220SF_LAUNCHXL_release_ccs.lib : pthread_mutex.obj (.data:defAttrs)
                  2000acbc    0000000c                                                       : timers.obj (.data)
                  2000acc8    0000000c     publish_task.obj (.data:mqttWillParams)
                  2000acd4    0000000c     network_if.obj (.data)
                  2000ace0    0000000c     simplelink.a : driver.obj (.data)
                  2000acec    00000009     mqtt_release.a : client_core.oem4 (.data:MQTTClientCore_mqtt310)
                  2000acf5    00000003     --HOLE--
                  2000acf8    00000009     drivers_cc32xx.aem4 : GPIOCC32XX.oem4 (.data)
                  2000ad01    00000003     --HOLE--
                  2000ad04    00000009     mqtt_release.a : mqttclient.oem4 (.data)
                  2000ad0d    00000003     --HOLE--
                  2000ad10    00000008                    : mqttclient.oem4 (.data:MQTTClient_clientCfg)
                  2000ad18    00000008     drivers_cc32xx.aem4 : UDMACC32XX.oem4 (.data)
                  2000ad20    00000008     freertos_builds_CC3220SF_LAUNCHXL_release_ccs.lib : mqueue.obj (.data)
                  2000ad28    00000008     publish_task.obj (.data:mqttInitParams)
                  2000ad30    00000008     freertos_builds_CC3220SF_LAUNCHXL_release_ccs.lib : clock.obj (.data:refTS)
                  2000ad38    00000008                                                       : clock.obj (.data:setTS)
                  2000ad40    00000008     drivers_cc32xx.aem4 : ADCCC32XX.oem4 (.data:state)
                  2000ad48    00000007     mqtt_release.a : client_core.oem4 (.data:MQTTClientCore_mqtt311)
                  2000ad4f    00000001     --HOLE--
                  2000ad50    00000004                    : mqttclient.oem4 (.data:MQTTClient_connectCfg)
                  2000ad54    00000004     freertos_builds_CC3220SF_LAUNCHXL_release_ccs.lib : ClockP_freertos.obj (.data)
                  2000ad58    00000004                                                       : HwiPCC32XX_freertos.obj (.data)
                  2000ad5c    00000004                                                       : PowerCC32XX_freertos.obj (.data)
                  2000ad60    00000004     publish_task.obj (.data)
                  2000ad64    00000004     simplelink.a : cc_pal.obj (.data)
                  2000ad68    00000004     slnetsock_release.a : slnetif.oem4 (.data)

.stack     0    2003fc00    00000400     UNINITIALIZED
                  2003fc00    00000004     rtsv7M4_T_le_eabi.lib : boot_cortex_m.c.obj (.stack)
                  2003fc04    000003fc     --HOLE--

__llvm_prf_cnts 
*          0    20000000    00000000     UNINITIALIZED

.binit     0    01000000    00000000     

MODULE SUMMARY

       Module                       code     ro data   rw data
       ------                       ----     -------   -------
    .\
       mqtt_if.obj                  5490     0         488    
       network_if.obj               3859     82        58     
       publish_task.obj             3528     110       101    
       uart_term.obj                666      0         4      
       claw_control.obj             532      0         0      
       debug.obj                    308      0         0      
       main_freertos.obj            234      0         0      
       timer70.obj                  214      0         0      
       timer500.obj                 152      0         4      
       publish_queue.obj            88       0         4      
       control_queue.obj            84       0         4      
       chain_queue.obj              76       0         4      
       parsing_queue.obj            60       0         4      
       sensor_thread_queue.obj      60       0         4      
    +--+----------------------------+--------+---------+---------+
       Total:                       15351    192       675    
                                                              
    .\syscfg\
       ti_drivers_config.obj        34       461       1876   
       ti_net_config.obj            68       0         0      
    +--+----------------------------+--------+---------+---------+
       Total:                       102      461       1876   
                                                              
    C:/Users/Domin/workspace_v10/freertos_builds_CC3220SF_LAUNCHXL_release_ccs/Debug/freertos_builds_CC3220SF_LAUNCHXL_release_ccs.lib
       heap_4.obj                   944      0         32800  
       tasks.obj                    5600     4         360    
       queue.obj                    3576     0         0      
       HwiPCC32XX_freertos.obj      368      0         2052   
       timers.obj                   1428     0         60     
       mqueue.obj                   1046     0         24     
       startup_cc32xx_ccs.obj       106      64        780    
       pthread.obj                  798      6         20     
       port.obj                     700      8         24     
       ClockP_freertos.obj          654      0         4      
       clock.obj                    492      0         16     
       PowerCC32XX_freertos.obj     454      0         4      
       pthread_mutex.obj            430      0         12     
       semaphore.obj                388      0         0      
       list.obj                     298      0         0      
       memory.obj                   284      0         0      
       SemaphoreP_freertos.obj      250      0         0      
       portasm.obj                  186      0         0      
       sleep.obj                    132      0         0      
       PTLS.obj                     70       0         0      
       aeabi_portable.obj           64       0         4      
    +--+----------------------------+--------+---------+---------+
       Total:                       18268    82        36160  
                                                              
    C:/ti/simplelink_cc32xx_sdk_4_20_00_07/source/ti/devices/cc32xx/driverlib/ccs/Release/driverlib.a
       prcm.obj                     1924     168       0      
       interrupt.obj                608      284       0      
       pin.obj                      280      256       0      
       timer.obj                    264      0         0      
       flash.obj                    72       0         0      
       cpu.obj                      32       0         0      
       systick.obj                  32       0         0      
       uart.obj                     24       0         0      
       udma.obj                     24       0         0      
       utils.obj                    6        0         0      
    +--+----------------------------+--------+---------+---------+
       Total:                       3266     708       0      
                                                              
    C:/ti/simplelink_cc32xx_sdk_4_20_00_07/source/ti/drivers/lib/drivers_cc32xx.aem4
       PowerCC32XX.oem4             2386     0         664    
       UARTCC32XXDMA.oem4           2340     84        0      
       SPICC32XXDMA.oem4            2118     68        0      
       PWMTimerCC32XX.oem4          1732     108       0      
       GPIOCC32XX.oem4              1428     103       65     
       TimerCC32XX.oem4             1132     32        4      
       ADCCC32XX.oem4               410      24        8      
       UDMACC32XX.oem4              270      0         28     
       UART.oem4                    186      36        1      
       SPI.oem4                     172      32        1      
       PWM.oem4                     172      24        1      
       Timer.oem4                   178      12        1      
       ADC.oem4                     172      8         1      
       PowerCC32XX_asm.oem4         150      0         0      
       List.oem4                    76       0         0      
    +--+----------------------------+--------+---------+---------+
       Total:                       12922    531       774    
                                                              
    C:/ti/simplelink_cc32xx_sdk_4_20_00_07/source/ti/drivers/net/wifi/ccs/rtos/simplelink.a
       driver.obj                   12800    280       1077   
       sl_socket.obj                7014     84        12     
       netapp.obj                   2086     12        0      
       device.obj                   1726     60        12     
       wlan.obj                     1620     16        0      
       cc_pal.obj                   1052     40        4      
       fs.obj                       924      32        0      
       eventreg.obj                 880      0         72     
       spawn.obj                    264      0         40     
       netcfg.obj                   192      4         0      
       netutil.obj                  180      0         0      
       flowcont.obj                 40       0         0      
    +--+----------------------------+--------+---------+---------+
       Total:                       28778    528       1217   
                                                              
    C:/ti/simplelink_cc32xx_sdk_4_20_00_07/source/ti/drivers/net/wifi/slnetif/ccs/Release/slnetifwifi.a
       slnetifwifi.obj              1458     36        88     
    +--+----------------------------+--------+---------+---------+
       Total:                       1458     36        88     
                                                              
    C:/ti/simplelink_cc32xx_sdk_4_20_00_07/source/ti/net/lib/ccs/m4/slnetsock_release.a
       slnetsock.oem4               2140     0         157    
       slnetutils.oem4              726      0         0      
       slnetif.oem4                 444      0         4      
    +--+----------------------------+--------+---------+---------+
       Total:                       3310     0         161    
                                                              
    C:/ti/simplelink_cc32xx_sdk_4_20_00_07/source/ti/net/mqtt/lib/ccs/m4/mqtt_release.a
       client_core.oem4             5642     11        781    
       mqttclient.oem4              2376     6         2407   
       mqtt_common.oem4             1458     0         0      
       mqtt_net_func.oem4           1300     32        0      
    +--+----------------------------+--------+---------+---------+
       Total:                       10776    49        3188   
                                                              
    C:\ti\ccs1040\ccs\tools\compiler\ti-cgt-arm_20.2.5.LTS\lib\rtsv7M4_T_le_eabi.lib
       _printfi.c.obj               4835     0         0      
       fd_add_t2.asm.obj            438      0         0      
       fd_div_t2.asm.obj            310      0         0      
       strtoul.c.obj                272      0         0      
       fd_cmp_t2.asm.obj            268      0         0      
       ctype.c.obj                  0        257       0      
       fd_mul_t2.asm.obj            252      0         0      
       s_scalbn.c.obj               208      0         0      
       memcpy_t2.asm.obj            156      0         0      
       ull_div_t2.asm.obj           150      0         0      
       snprintf.c.obj               148      0         0      
       vsnprintf.c.obj              136      0         0      
       memset_t2.asm.obj            122      0         0      
       copy_decompress_lzss.c.obj   104      0         0      
       s_frexp.c.obj                92       0         0      
       _ltoa.c.obj                  84       0         0      
       atoi.c.obj                   76       0         0      
       fd_toi_t2.asm.obj            72       0         0      
       autoinit.c.obj               68       0         0      
       fd_tou_t2.asm.obj            68       0         0      
       strncpy.c.obj                54       0         0      
       i_tofd_t2.asm.obj            46       0         0      
       memmov.c.obj                 40       0         0      
       boot_cortex_m.c.obj          36       0         0      
       memcmp.c.obj                 36       0         0      
       u_tofd_t2.asm.obj            32       0         0      
       memccpy.c.obj                28       0         0      
       ll_mul_t2.asm.obj            24       0         0      
       strcmp.c.obj                 24       0         0      
       strchr.c.obj                 22       0         0      
       strcpy.c.obj                 20       0         0      
       strlen.c.obj                 20       0         0      
       wcslen.c.obj                 18       0         0      
       copy_decompress_none.c.obj   14       0         0      
       copy_zero_init.c.obj         12       0         0      
       s_copysign.c.obj             12       0         0      
       exit.c.obj                   4        0         0      
       pre_init.c.obj               4        0         0      
       div0.asm.obj                 2        0         0      
    +--+----------------------------+--------+---------+---------+
       Total:                       8307     257       0      
                                                              
       Stack:                       0        0         1024   
       Linker Generated:            0        510       0      
    +--+----------------------------+--------+---------+---------+
       Grand Total:                 102538   3354      45163  


LINKER GENERATED COPY TABLES

__TI_cinit_table @ 0101a5d0 records: 2, size/record: 8, table size: 16
	.data: load addr=0101a3e0, load size=000001da bytes, run addr=20009fe8, run size=00000d84 bytes, compression=lzss
	.bss: load addr=0101a5c8, load size=00000008 bytes, run addr=20000400, run size=00009be5 bytes, compression=zero_init


LINKER GENERATED HANDLER TABLE

__TI_handler_table @ 0101a5bc records: 3, size/record: 4, table size: 12
	index: 0, handler: __TI_decompress_lzss
	index: 1, handler: __TI_decompress_none
	index: 2, handler: __TI_zero_init


GLOBAL SYMBOLS: SORTED ALPHABETICALLY BY Name 

address   name                                      
-------   ----                                      
01012b39  ADCCC32XX_close                           
010198a7  ADCCC32XX_control                         
010136c9  ADCCC32XX_convert                         
0101898d  ADCCC32XX_convertToMicroVolts             
0101a018  ADCCC32XX_fxnTable                        
01019857  ADCCC32XX_init                            
01011019  ADCCC32XX_open                            
010197ad  ADC_Params_init                           
010197b7  ADC_close                                 
0101a29c  ADC_config                                
010197c1  ADC_convert                               
010197cb  ADC_convertToMicroVolts                   
01019f57  ADC_count                                 
0101a2f0  ADC_defaultParams                         
0101616d  ADC_init                                  
010166b9  ADC_open                                  
01019517  Board_init                                
0100128f  Board_initHook                            
010165f1  BrokerCB                                  
010198ed  C$$EXIT                                   
01019f56  CONFIG_ADC_0_CONST                        
01019f58  CONFIG_Crypto_0_CONST                     
01019f5f  CONFIG_GPIO_0_CONST                       
01019f60  CONFIG_GPIO_1_CONST                       
01019f61  CONFIG_GPIO_2_CONST                       
01019f62  CONFIG_GPIO_3_CONST                       
01019f63  CONFIG_GPIO_4_CONST                       
01019f64  CONFIG_GPIO_5_CONST                       
01019f65  CONFIG_GPIO_6_CONST                       
01019f66  CONFIG_GPIO_7_CONST                       
01019f67  CONFIG_GPIO_8_CONST                       
01019f5a  CONFIG_GPIO_BUTTON_0_CONST                
01019f5b  CONFIG_GPIO_BUTTON_1_CONST                
01019f5c  CONFIG_GPIO_LED_0_CONST                   
01019f5d  CONFIG_GPIO_LED_1_CONST                   
01019f5e  CONFIG_GPIO_LED_2_CONST                   
01019f6c  CONFIG_NWP_SPI_CONST                      
01019f68  CONFIG_PWM_0_CONST                        
01019f69  CONFIG_PWM_1_CONST                        
01019f6b  CONFIG_SPI_0_CONST                        
01019f6e  CONFIG_TIMER_0_CONST                      
01019f6f  CONFIG_TIMER_1_CONST                      
01019f70  CONFIG_TIMER_2_CONST                      
01019f72  CONFIG_UART_0_CONST                       
01019f74  CONFIG_WATCHDOG_0_CONST                   
010192b9  CPUcpsie                                  
01019697  CPUwfi                                    
2000aca0  ClientId                                  
01018d8b  ClockP_Params_init                        
01016bf9  ClockP_callbackFxn                        
01010529  ClockP_create                             
0101493d  ClockP_delete                             
010189ad  ClockP_getCpuFreq                         
01019527  ClockP_getSystemTickPeriod                
0101985f  ClockP_getSystemTicks                     
01019199  ClockP_setTimeout                         
01018b8d  ClockP_start                              
0101372d  ClockP_stop                               
01019f59  CryptoCC32XX_count                        
20009f5c  DeviceCB                                  
01005b4d  DisplayAppBanner                          
01019f55  Display_count                             
01015a21  FlashDisable                              
0101a1a8  GPIOCC32XX_config                         
01017e85  GPIO_clearInt                             
01015221  GPIO_disableInt                           
0101526d  GPIO_enableInt                            
01012869  GPIO_hwiIntFxn                            
0100e239  GPIO_init                                 
01013e11  GPIO_setCallback                          
01006dfd  GPIO_setConfig                            
01013791  GPIO_toggle                               
010142bd  GPIO_write                                
0100d935  GetCmd                                    
20009da4  GlobalLockObj                             
01018bab  HwiP_Params_init                          
010196a3  HwiP_clearInterrupt                       
01013b15  HwiP_create                               
01019499  HwiP_delete                               
01017eb1  HwiP_disable                              
010196af  HwiP_disableInterrupt                     
01015a69  HwiP_dispatch                             
20009fe8  HwiP_dispatchTable                        
010196bb  HwiP_enableInterrupt                      
010182e9  HwiP_inISR                                
010189cd  HwiP_restore                              
2000ac90  IRmessages                                
01013e6d  InitTerm                                  
01016739  InitializeAppVariables                    
0100fc0d  IntDisable                                
0100fcb5  IntEnable                                 
010197d5  IntMasterEnable                           
01014315  IntPendClear                              
01014991  IntPrioritySet                            
010189ed  IntRegister                               
010186a1  IntUnregister                             
010192cd  IntVTableBaseSet                          
010185e1  List_put                                  
01018607  List_remove                               
01003fad  MQTTAppThread                             
01001b79  MQTTClientCallback                        
01018bc9  MQTTClientCore_alloc                      
010115c9  MQTTClientCore_createCtx                  
01018be7  MQTTClientCore_ctxRun                     
010149e5  MQTTClientCore_deleteCtx                  
01013ec9  MQTTClientCore_exitLib                    
010108e5  MQTTClientCore_initLib                    
01016e65  MQTTClientCore_registerBuffers            
01016779  MQTTClientCore_registerCtxInfo            
0101730d  MQTTClientCore_registerNetSvc             
01015185  MQTTClientCore_registerWillInfo           
010161b1  MQTTClientCore_run                        
010196c7  MQTTClientCore_sendConnectMsg             
01014a39  MQTTClientCore_sendDisconn                
01010981  MQTTClientCore_sendPubMsg                 
01019867  MQTTClientCore_sendSubMsg                 
20009f34  MQTTClient_Lib_CB                         
2000ad10  MQTTClient_clientCfg                      
2000ad08  MQTTClient_clientContext                  
2000ad04  MQTTClient_closeContext                   
01009c4d  MQTTClient_connect                        
2000ad50  MQTTClient_connectCfg                     
010101f5  MQTTClient_create                         
01010299  MQTTClient_delete                         
01016ea1  MQTTClient_disconnect                     
2000ad0c  MQTTClient_multiSrvConn                   
2000ab80  MQTTClient_net                            
010192e1  MQTTClient_publish                        
01013099  MQTTClient_run                            
01015ab1  MQTTClient_set                            
01019619  MQTTClient_subscribe                      
20009fe0  MQTTClient_waitSecs                       
0101250d  MQTTContextThread                         
01011ee9  MQTTHelperTopicMatching                   
010191af  MQTTNet_commClose                         
0100cf25  MQTTNet_commOpen                          
010128e1  MQTTNet_recvFrom                          
010192f5  MQTTNet_rtcSecs                           
01013321  MQTTNet_sendTo                            
01012bad  MQTTNet_tcpAccept                         
01013f25  MQTTNet_tcpListen                         
010161f5  MQTTNet_tcpRecv                           
01010eed  MQTTNet_tcpSelect                         
0101986f  MQTTNet_tcpSend                           
01005d85  MQTT_EventCallback                        
01005901  MQTT_IF_Connect                           
01008a51  MQTT_IF_Init                              
01010c8d  MQTT_IF_Publish                           
01007cb5  MQTT_IF_Subscribe                         
0100be05  MQTT_PacketRecv                           
0101862d  MQTT_clCtxRemove                          
010191c5  MQTT_clCtxReset                           
01017b85  MQTT_clCtxTimeoutInsert                   
01018fcf  MQTT_clCtxTimeoutUpdate                   
01019309  MQTT_packetAckWlistAppend                 
01018f4d  MQTT_packetAckWlistPurge                  
01016c37  MQTT_packetAckWlistRemove                 
01016635  MQTT_packetBufRdRemlen                    
01016c75  MQTT_packetBufTailWrRemlen                
01018311  MQTT_packetBufWrUtf8                      
010191db  MQTT_packetFree                           
010191f1  MQTT_packetInit                           
010176fd  MQTT_packetPrepFh                         
01018905  MQTT_packetProcMsgIdAckRx                 
01012e65  MQTT_packetProcPubRx                      
0101478d  MQTT_packetPubAppendData                  
010137f5  MQTT_packetPubAppendTopic                 
0101931d  MQTT_packetReset                          
01016edd  MQTT_qos2PubCqCheck                       
01017345  MQTT_qos2PubCqLogup                       
01018a0d  MQTT_qos2PubCqReset                       
0101338b  MQTT_qos2PubCqUnlog                       
010196d3  MQTT_secureConnStructInit                 
01018da9  Message                                   
0101033d  MqttClientConfig                          
0100ca4d  MqttClientCtxCreate                       
01016239  MqttClientCtxDelete                       
0100e3c1  MqttClientSub                             
0100f1a9  MqttClient_send                           
20009f68  Msg                                       
01017df9  Mutex_create_handle                       
0100309d  Network_IF_ConnectAP                      
010176c5  Network_IF_DeInitDriver                   
01016f19  Network_IF_DisconnectFromAP               
01005441  Network_IF_InitDriver                     
0100fd5d  Network_IF_IpConfigGet                    
010196e1  Network_IF_ResetMCUStateMachine           
010196ed  NwpMaskInterrupt                          
0100e481  NwpPowerOff                               
01017edd  NwpPowerOn                                
01014cd5  NwpRegisterInterruptHandler               
010196f9  NwpUnMaskInterrupt                        
010152b9  NwpWaitForShutDownInd                     
01019cf0  OpcodeTranslateTable                      
01002575  PRCMCC3200MCUInit                         
01019207  PRCMHIBRegRead                            
0101921d  PRCMHIBRegWrite                           
01015af9  PRCMLPDSEnter                             
0101737d  PRCMLPDSEnterKeepDebugIf                  
01017f09  PRCMLPDSIntervalSet                       
0101627d  PRCMLPDSRestoreInfoSet                    
01018339  PRCMLPDSWakeupSourceEnable                
01018361  PRCMPeripheralClkDisable                  
01015b41  PRCMPeripheralClkEnable                   
0100fe05  PRCMPeripheralClockGet                    
0101436d  PRCMPeripheralReset                       
01019877  PRCMSleepEnter                            
01016f55  PRCMSlowClkCtrFastGet                     
01013b75  PRCMSysResetCauseGet                      
01019233  PTLS_getBuf                               
01019249  PTLS_setBuf                               
01018f67  PTLS_taskDeleteHook                       
0101199d  PWMTimerCC32XX_close                      
010198ad  PWMTimerCC32XX_control                    
01019ea4  PWMTimerCC32XX_fxnTable                   
01006dfb  PWMTimerCC32XX_init                       
0100d2f9  PWMTimerCC32XX_open                       
0100eca1  PWMTimerCC32XX_setDuty                    
0100a569  PWMTimerCC32XX_setDutyAndPeriod           
01010d25  PWMTimerCC32XX_setPeriod                  
010133f5  PWMTimerCC32XX_start                      
0100e2fd  PWMTimerCC32XX_stop                       
01019331  PWM_Params_init                           
0101a030  PWM_config                                
01019f6a  PWM_count                                 
0101a048  PWM_defaultParams                         
010162c1  PWM_init                                  
010167b9  PWM_open                                  
010197df  PWM_setDuty                               
010197e9  PWM_start                                 
01011a25  PinConfigSet                              
01017879  PinModeGet                                
010167f9  PinModeSet                                
01018dc5  PinToPadGet                               
01019e0c  PowerCC32XX_config                        
0100fead  PowerCC32XX_configureWakeup               
200096ac  PowerCC32XX_contextSave                   
01016305  PowerCC32XX_enterLPDS                     
01017f35  PowerCC32XX_getParkState                  
010071c3  PowerCC32XX_initPolicy                    
2000a7e8  PowerCC32XX_module                        
01015305  PowerCC32XX_parkPin                       
010186c5  PowerCC32XX_reset                         
010178ad  PowerCC32XX_restoreParkState              
01017be9  PowerCC32XX_restoreParkedPin              
01014bdd  PowerCC32XX_resumeLPDS                    
01013859  PowerCC32XX_setParkState                  
01008555  PowerCC32XX_sleepPolicy                   
01019705  Power_getConstraintMask                   
01019345  Power_getDependencyCount                  
01019627  Power_getTransitionLatency                
01018fe9  Power_idleFunc                            
01011f6d  Power_init                                
01018389  Power_registerNotify                      
01015b89  Power_releaseConstraint                   
010143c5  Power_releaseDependency                   
01016f91  Power_setConstraint                       
0101238d  Power_setDependency                       
0100aa61  Power_sleep                               
01018a2d  Power_unregisterNotify                    
0100f695  Report                                    
20009fe4  RxIrqCnt                                  
0100da0d  SPICC32XXDMA_close                        
010198b3  SPICC32XXDMA_control                      
0101a060  SPICC32XXDMA_fxnTable                     
010198dd  SPICC32XXDMA_init                         
01009af5  SPICC32XXDMA_open                         
0100757d  SPICC32XXDMA_transfer                     
0100d205  SPICC32XXDMA_transferCancel               
01019359  SPI_Params_init                           
010197f3  SPI_close                                 
0101a078  SPI_config                                
01019f6d  SPI_count                                 
01019f98  SPI_defaultParams                         
01016349  SPI_init                                  
01016839  SPI_open                                  
010197fd  SPI_transfer                              
0101925f  SemaphoreP_Params_init                    
010147e3  SemaphoreP_create                         
01017f61  SemaphoreP_createBinary                   
01019711  SemaphoreP_delete                         
010178e1  SemaphoreP_pend                           
01018927  SemaphoreP_post                           
010110ad  Semaphore_pend_handle                     
0100dd6d  SetClientIdNamefromMacAddress             
01006fe1  SimpleLinkFatalErrorEventHandler          
01016879  SimpleLinkGeneralEventHandler             
0101971d  SimpleLinkHttpServerEventHandler          
010093b1  SimpleLinkNetAppEventHandler              
01019729  SimpleLinkNetAppRequestEventHandler       
01019807  SimpleLinkNetAppRequestMemFreeEventHandler
01004a55  SimpleLinkSockEventHandler                
010073a5  SimpleLinkWlanEventHandler                
2000aa4c  SlNetIfConfigWifi                         
01018a4d  SlNetIfWifi_accept                        
01018c05  SlNetIfWifi_bind                          
010194ab  SlNetIfWifi_close                         
01018c23  SlNetIfWifi_connect                       
01015351  SlNetIfWifi_getConnectionStatus           
01017733  SlNetIfWifi_getHostByName                 
01017225  SlNetIfWifi_getIPAddr                     
0100f7fd  SlNetIfWifi_getSockOpt                    
01018f81  SlNetIfWifi_listen                        
0100cb45  SlNetIfWifi_loadSecObj                    
01017f8d  SlNetIfWifi_recv                          
010173b5  SlNetIfWifi_recvFrom                      
01017769  SlNetIfWifi_select                        
01017fb9  SlNetIfWifi_send                          
010173ed  SlNetIfWifi_sendTo                        
01013d55  SlNetIfWifi_setSockOpt                    
01017425  SlNetIfWifi_socket                        
01011ff1  SlNetIfWifi_sockstartSec                  
0100d5b9  SlNetIf_add                               
010186e9  SlNetIf_getConnectionStatus               
010183b1  SlNetIf_getIfByID                         
010198e1  SlNetIf_init                              
01014d25  SlNetIf_queryIf                           
01011655  SlNetSock_accept                          
010168b9  SlNetSock_bind                            
01016cb3  SlNetSock_close                           
01015bd1  SlNetSock_connect                         
010111d5  SlNetSock_create                          
01015c19  SlNetSock_init                            
01017495  SlNetSock_listen                          
0101441d  SlNetSock_recv                            
01013bd5  SlNetSock_recvFrom                        
0101936d  SlNetSock_sdsClrAll                       
010183d9  SlNetSock_sdsIsSet                        
01018401  SlNetSock_sdsSet                          
01019537  SlNetSock_secAttribCreate                 
01018429  SlNetSock_secAttribDelete                 
01012ed9  SlNetSock_secAttribSet                    
01008bf1  SlNetSock_select                          
01014475  SlNetSock_send                            
01013c35  SlNetSock_sendTo                          
01015c61  SlNetSock_setOpt                          
010153e9  SlNetSock_startSec                        
01012075  SlNetUtil_getHostByName                   
010174cd  SlNetUtil_htonl                           
01017915  SlNetUtil_htons                           
01018145  SlNetUtil_inetPton                        
010198e5  SlNetUtil_init                            
010174cd  SlNetUtil_ntohl                           
01017915  SlNetUtil_ntohs                           
01019549  SysTickDisable                            
01019559  SysTickEnable                             
01014d75  TimerCC32XX_allocateTimerResource         
0101725f  TimerCC32XX_close                         
010198b9  TimerCC32XX_control                       
01017949  TimerCC32XX_freeTimerResource             
01019fd8  TimerCC32XX_fxnTable                      
01019001  TimerCC32XX_getCount                      
0100839f  TimerCC32XX_init                          
0100b1a5  TimerCC32XX_open                          
01011aad  TimerCC32XX_setPeriod                     
01012959  TimerCC32XX_start                         
01014839  TimerCC32XX_stop                          
0101779f  TimerControlStall                         
01018c41  TimerDisable                              
01018c5f  TimerEnable                               
0101987f  TimerGetCurrentTimestamp                  
010194bd  TimerIntClear                             
01019019  TimerIntDisable                           
01019031  TimerIntEnable                            
0101816f  TimerLoadSet                              
01018199  TimerPrescaleSet                          
01019569  Timer_Params_init                         
01019811  Timer_close                               
01019ec8  Timer_config                              
01019f71  Timer_count                               
010163d1  Timer_init                                
010168f9  Timer_open                                
0101981b  Timer_start                               
01019825  Timer_stop                                
010158a9  ToggleLED1CB                              
010158f5  ToggleLED2CB                              
01015941  ToggleLED3CB                              
01010dbd  TrimSpace                                 
01019049  UARTBusy                                  
0100cc3d  UARTCC32XXDMA_close                       
01013c95  UARTCC32XXDMA_control                     
01019e7c  UARTCC32XXDMA_fxnTable                    
0100aa5f  UARTCC32XXDMA_init                        
01006601  UARTCC32XXDMA_open                        
0101240d  UARTCC32XXDMA_read                        
010181c3  UARTCC32XXDMA_readCancel                  
01012681  UARTCC32XXDMA_readPolling                 
010116e1  UARTCC32XXDMA_write                       
010181ed  UARTCC32XXDMA_writeCancel                 
01014dc5  UARTCC32XXDMA_writePolling                
01019061  UART_Params_init                          
0101a2a8  UART_config                               
0101982f  UART_control                              
01019f73  UART_count                                
01019eec  UART_defaultParams                        
01016415  UART_init                                 
01016939  UART_open                                 
01019839  UART_readPolling                          
01019843  UART_writePolling                         
0101797d  UDMACC32XX_close                          
0101a2f8  UDMACC32XX_config                         
01016979  UDMACC32XX_init                           
01012589  UDMACC32XX_open                           
010198bf  UtilsDelay                                
01019f75  Watchdog_count                            
010047c1  WifiInit                                  
01019dbc  _SlActionLookupTable                      
0100c241  _SlDeviceEventHandler                     
01015ca9  _SlDeviceFatalErrorEvtHdlr                
01015cf1  _SlDeviceGeneralEvtHdlr                   
0100dae5  _SlDeviceHandleAsync_InitComplete         
01011389  _SlDeviceHandleAsync_Stop                 
01013171  _SlDeviceHandleResetRequestInternally     
01019735  _SlDeviceResetRequestInitCompletedCB      
01015d39  _SlDrvBasicCmd                            
0100c345  _SlDrvCmdOp                               
01012f49  _SlDrvCmdSend_noLock                      
01014e65  _SlDrvCmdSend_noWait                      
010056a5  _SlDrvDataReadOp                          
010061d5  _SlDrvDataWriteOp                         
01019579  _SlDrvDispatchHttpServerEvents            
01019589  _SlDrvDispatchNetAppRequestEvents         
0100b075  _SlDrvDriverCBDeinit                      
01005fb1  _SlDrvDriverCBInit                        
0101176d  _SlDrvDriverIsApiAllowed                  
010169b9  _SlDrvGlobalObjUnLock                     
0100f311  _SlDrvHandleFatalError                    
0101870d  _SlDrvIsApiInProgress                     
01019599  _SlDrvIsSpawnOwnGlobalLock                
0101014d  _SlDrvIsTimeoutExpired                    
01019275  _SlDrvMemZero                             
0100a6a9  _SlDrvMsgReadSpawnCtx                     
0100c651  _SlDrvObjGlobalLockWaitForever            
01018c7d  _SlDrvObjLockWaitForever                  
01018c9b  _SlDrvObjUnLock                           
010117f9  _SlDrvProtectAsyncRespSetting             
01018451  _SlDrvProtectionObjLockWaitForever        
01018479  _SlDrvProtectionObjUnLock                 
010083a1  _SlDrvReleaseAllActivePendingPoolObj      
010033bd  _SlDrvReleasePoolObj                      
01019635  _SlDrvResetCmdExt                         
01014a8d  _SlDrvRxIrqHandler                        
01018731  _SlDrvStartMeasureTimeout                 
01018cb9  _SlDrvSyncObjSignal                       
01017fe5  _SlDrvSyncObjWaitForever                  
01015d81  _SlDrvSyncObjWaitTimeout                  
0100dbbd  _SlDrvWaitForInternalAsyncEvent           
010039f5  _SlDrvWaitForPoolObj                      
010169f9  _SlFindAndReleasePendingCmd               
010184a1  _SlFlowContSet                            
01018dfd  _SlInternalIsItSpawnThread                
01013f81  _SlInternalSpawn                          
01014f05  _SlInternalSpawnTaskEntry                 
01016a39  _SlInternalSpawnWaitForEvent              
01016a79  _SlIsEventRegistered                      
01006c09  _SlNetAppEventHandler                     
01015dc9  _SlNetAppEvtHdlr                          
0100ee11  _SlNetAppHandleAsync_DnsGetHostByName     
0100babd  _SlNetAppHandleAsync_DnsGetHostByService  
0100dc95  _SlNetAppHandleAsync_NetAppReceive        
0100eec9  _SlNetAppHandleAsync_PingResponse         
01014f55  _SlNetAppHttpServerHdlr                   
01014fa5  _SlNetAppRequestHdlr                      
01015e11  _SlNetAppRequestMemFree                   
0100e781  _SlNetAppSendResponse                     
0101a394  _SlNetAppSendResponseCmdCtrl              
01013249  _SlNetAppSendTokenValue                   
0101a398  _SlNetAppSendTokenValueCmdCtrl            
0100f3c5  _SlNetUtilHandleAsync_Cmd                 
01015e59  _SlSockEvtHdlr                            
01011419  _SlSocketHandleAsync_Accept               
0100fa09  _SlSocketHandleAsync_Close                
0100fab5  _SlSocketHandleAsync_Connect              
010020b9  _SlSocketHandleAsync_Select               
0100af41  _SlSocketHandleAsync_StartTLS             
0101345d  _SlSpawnMsgListGetCount                   
0100ab99  _SlSpawnMsgListInsert                     
01010709  _SlSpawnMsgListProcess                    
01015ea1  _SlWlanEvtHdlr                            
20040000  __STACK_END                               
00000400  __STACK_SIZE                              
0101a5d0  __TI_CINIT_Base                           
0101a5e0  __TI_CINIT_Limit                          
0101a5bc  __TI_Handler_Table_Base                   
0101a5c8  __TI_Handler_Table_Limit                  
01016459  __TI_auto_init_nobinit_nopinit            
010134c5  __TI_decompress_lzss                      
0101965f  __TI_decompress_none                      
01014ae1  __TI_ltoa                                 
ffffffff  __TI_pprof_out_hndl                       
01000841  __TI_printfi                              
ffffffff  __TI_prof_data_size                       
ffffffff  __TI_prof_data_start                      
0101a3e0  __TI_static_base__                        
01019759  __TI_zero_init                            
01011ddd  __aeabi_cdcmpeq                           
01011ddd  __aeabi_cdcmple                           
01011e63  __aeabi_cdrcmple                          
01015fc1  __aeabi_d2iz                              
010164e1  __aeabi_d2uiz                             
010081f3  __aeabi_dadd                              
0100ae09  __aeabi_ddiv                              
0100c951  __aeabi_dmul                              
010081e9  __aeabi_dsub                              
01016ab9  __aeabi_errno_addr                        
01017e55  __aeabi_i2d                               
0100d77b  __aeabi_idiv0                             
0100d77b  __aeabi_ldiv0                             
01019139  __aeabi_lmul                              
01012775  __aeabi_memclr                            
01012775  __aeabi_memclr4                           
01012775  __aeabi_memclr8                           
01010ab9  __aeabi_memcpy                            
01010ab9  __aeabi_memcpy4                           
01010ab9  __aeabi_memcpy8                           
01012777  __aeabi_memset                            
01012777  __aeabi_memset4                           
01012777  __aeabi_memset8                           
01018b0d  __aeabi_ui2d                              
01010f83  __aeabi_uldivmod                          
ffffffff  __binit__                                 
ffffffff  __c_args__                                
UNDEFED   __mpu_init                                
2003fc00  __stack                                   
20000000  __start___llvm_prf_cnts                   
20000000  __stop___llvm_prf_cnts                    
01018755  _c_int00_noargs                           
0100f479  _clock_abstime2ticks                      
010198f8  _ctypes_                                  
01018653  _pthread_cleanup_pop                      
010184f1  _sl_ExtLib_AwaitedAckLockedSet            
01019643  _sl_ExtLib_AwaitedAckSet                  
01016af9  _sl_ExtLib_ServerAckLockedWait            
UNDEFED   _system_post_cinit                        
010198e9  _system_pre_init                          
010198ed  abort                                     
0101a3c8  adcCC32XXHWAttrs                          
20009fcc  adcCC32XXObjects                          
01018e19  addSensor                                 
01018e35  addSubscribe                              
01018519  add_to_chain_queue                        
010190a9  add_to_control_queue                      
01018e51  add_to_publish_queue                      
20009fd0  appQueue                                  
01015481  atoi                                      
2000ac98  avg                                       
ffffffff  binit                                     
010179b1  callback500                               
01018cf5  callback70                                
01013fdd  calloc                                    
010063ed  claw_control_task                         
200093fc  clients                                   
0100fb61  clock_gettime                             
20009fd4  connected                                 
01014039  convert_To_mm                             
0101974d  copysign                                  
0101974d  copysignl                                 
2000ac94  count                                     
0101879d  create_chain_queue                        
010187c1  create_control_queue                      
01018a6d  create_parsing_queue                      
010187e5  create_publish_queue                      
01018a8d  create_sensor_queue                       
01018949  dbgEvent                                  
20009fd8  deinit                                    
0101352d  eTaskConfirmSleepModeStatus               
0101457d  fatalError                                
010190c1  free                                      
01014095  frexp                                     
01014095  frexpl                                    
2000ace1  gGlobalLockCntReleased                    
2000ace0  gGlobalLockCntRequested                   
20009000  g_CB                                      
2000aba8  g_LibsEvents                              
2000ace2  g_SlDeviceStatus                          
20009dd0  g_SlInternalSpawnCB                       
2000abcc  g_UserEvents                              
2000ad64  g_intHandle                               
2000ace4  g_pCB                                     
20009f8c  g_ucConnectionBSSID                       
20009df8  g_ucConnectionSSID                        
2000acd8  g_ulGatewayIP                             
2000acd4  g_ulStaIp                                 
2000acdc  g_ulStatus                                
20009fe2  g_usConnectIndex                          
2000aaa4  gpioCallbackFunctions                     
2000aadc  gpioPinConfigs                            
0101a346  inPinTypes                                
01015565  initVectors                               
01018d13  jsmn_init                                 
010036d9  jsmn_parse                                
0100df0d  ldexp                                     
0100df0d  ldexpl                                    
2000ad60  longPress                                 
0100d77d  main                                      
01016677  malloc                                    
0100f8ad  matchModeByRole                           
01018ea5  memccpy                                   
01018809  memcmp                                    
01010ab9  memcpy                                    
01018541  memmove                                   
0101277d  memset                                    
01015045  mq_close                                  
01004f61  mq_open                                   
01011b35  mq_receive                                
01011267  mq_send                                   
2000ac3c  mqttClientParams                          
2000ac54  mqttConnParams                            
2000ad28  mqttInitParams                            
2000acc8  mqttWillParams                            
01017575  myNodeAlloc                               
0101a34c  outPinStrengths                           
0101a320  outPinTypes                               
2000ace8  pPingCallBackFunc                         
2000a954  parkInfo                                  
01018edd  pthread_attr_init                         
0101896b  pthread_attr_setdetachstate               
01018569  pthread_attr_setschedparam                
010193a9  pthread_attr_setstacksize                 
0100acd1  pthread_create                            
0101414d  pthread_exit                              
01018fb5  pthread_mutex_destroy                     
01012d7d  pthread_mutex_init                        
010193bd  pthread_mutex_lock                        
01013cf5  pthread_mutex_unlock                      
01018ef9  pthread_mutexattr_init                    
01018069  pthread_mutexattr_settype                 
010193d1  pthread_self                              
01016de9  pthread_setcancelstate                    
01002d25  publish_task                              
0100ef81  pushButtonConnectionHandler               
010132b5  pushButtonPublishHandler                  
010088ad  pvPortMalloc                              
01017081  pvTaskGetThreadLocalStoragePointer        
01018f15  pvTaskIncrementMutexHeldCount             
01017e27  pvTimerGetTimerID                         
0101a328  pwmTimerCC32XXHWAttrs                     
20009d30  pwmTimerCC32XXObjects                     
2000ab4c  pxCurrentTCB                              
01015095  pxPortInitialiseStack                     
010135fd  realloc                                   
0101928d  resetISR                                  
0101929c  resetVectorAddr                           
01000800  resetVectors                              
01019109  retrieve_from_control_queue               
01019121  retrieve_publish_queue                    
0100df0d  scalbn                                    
0100df0d  scalbnl                                   
010193e5  sem_destroy                               
01018875  sem_getvalue                              
010150e5  sem_init                                  
01016e27  sem_post                                  
01013db3  sem_timedwait                             
01018591  sem_trywait                               
01019151  sem_wait                                  
0100ebe7  setGPIOs                                  
01008705  sl_Accept                                 
01010485  sl_Bind                                   
0100cd35  sl_Close                                  
010096ad  sl_Connect                                
0100f039  sl_DeviceGet                              
0100fffd  sl_FsClose                                
0100b51d  sl_FsOpen                                 
0100c751  sl_FsWrite                                
0100f52d  sl_GetSockOpt                             
0101462d  sl_Listen                                 
01009825  sl_NetAppDnsGetHostByName                 
0100e601  sl_NetCfgGet                              
01011911  sl_Recv                                   
01009ef5  sl_RecvFrom                               
01014685  sl_RegisterLibsEventHandler               
01004515  sl_Select                                 
0100ea71  sl_Send                                   
0100d111  sl_SendTo                                 
01012201  sl_SetSockOpt                             
01012a49  sl_Socket                                 
0100b9a1  sl_Start                                  
0100a2d9  sl_StartTLS                               
010071c5  sl_Stop                                   
0101984d  sl_Task                                   
01011ccd  sl_UnregisterLibsEventHandler             
01004ce5  sl_WlanConnect                            
01018899  sl_WlanDisconnect                         
0100f0f1  sl_WlanGet                                
01004265  sl_WlanProfileAdd                         
01015779  sl_WlanSetMode                            
01016009  sleep                                     
010157c5  snprintf                                  
01019c78  spiCC32XXDMAHWAttrs                       
20009ad4  spiCC32XXDMAObjects                       
20009f94  spiCC32XXSDMAscratchBuf                   
0101967b  spi_Close                                 
01013595  spi_Open                                  
010107a9  spi_Read                                  
01010847  spi_Write                                 
01013a4d  start500                                  
010141a9  start70                                   
010192a3  strchr                                    
01019169  strcmp                                    
010193f9  strcpy                                    
0101940d  strlen                                    
01017841  strncpy                                   
0100bf19  strtoul                                   
01016525  ti_net_SlNet_initConfig                   
20009fdc  timer0                                    
01019e4c  timerCC32XXHWAttrs                        
20009a38  timerCC32XXObjects                        
01019421  timerCallback                             
0101977d  timerLEDCallback                          
01018b6d  topic_subscribe_callback                  
01019789  uDMAErrorStatusClear                      
01019795  uDMAErrorStatusGet                        
20009bdc  uartCC32XXObjects0                        
0101a2e4  udmaCC3220SHWAttrs                        
20009f9c  udmaCC3220SObject                         
0101a300  ulMaxSyscallInterruptPriority             
0100eb3d  ulPortGetIPSR                             
01017171  usleep                                    
01016051  uxListRemove                              
010182bf  uxQueueMessagesWaiting                    
0101a3d0  uxTopUsedPriority                         
01019689  vApplicationStackOverflowHook             
01017d69  vListInitialise                           
010195f9  vListInitialiseItem                       
01013663  vListInsert                               
010171ad  vListInsertEnd                            
01015811  vPortEnterCritical                        
01017d99  vPortExitCritical                         
010100a5  vPortFree                                 
0100eba1  vPortSVCHandler                           
010146dd  vPortSetupTimerInterrupt                  
0100ebc5  vPortStartFirstTask                       
0101945d  vPortSuppressTicksAndSleep                
01012df1  vPortValidateInterruptPriority            
010188bd  vQueueDelete                              
01014205  vQueueWaitForMessageRestricted            
01014261  vTaskDelay                                
0100c851  vTaskDelete                               
010188e1  vTaskInternalSetTimeOutState              
010197a1  vTaskMissedYield                          
01017b1d  vTaskPlaceOnEventList                     
01012ac1  vTaskPlaceOnEventListRestricted           
0100a421  vTaskPriorityDisinheritAfterTimeout       
010180c1  vTaskSetApplicationTaskTag                
0101585d  vTaskSetThreadLocalStoragePointer         
01010b55  vTaskStartScheduler                       
01016569  vTaskStepTick                             
0100bbd5  vTaskSuspend                              
01019609  vTaskSuspendAll                           
0100d859  vTaskSwitchContext                        
01016bb9  vsnprintf                                 
01019505  wcslen                                    
0100eb55  xPortPendSVHandler                        
0100e6c1  xPortStartScheduler                       
010180ed  xPortSysTickHandler                       
01016127  xQueueCreateCountingSemaphore             
01018119  xQueueCreateMutex                         
01012309  xQueueGenericCreate                       
0100c54d  xQueueGenericReset                        
01008031  xQueueGenericSend                         
0100b3f5  xQueueGenericSendFromISR                  
0100c029  xQueueGiveFromISR                         
01015135  xQueueGiveMutexRecursive                  
01009531  xQueueReceive                             
0100d01b  xQueueReceiveFromISR                      
0100774d  xQueueSemaphoreTake                       
01014735  xQueueTakeMutexRecursive                  
0100f5e1  xTaskCheckForTimeOut                      
010127ef  xTaskCreate                               
010185b9  xTaskGetApplicationTaskTag                
01019471  xTaskGetCurrentTaskHandle                 
01017dc9  xTaskGetSchedulerState                    
01019485  xTaskGetTickCount                         
01019181  xTaskGetTickCountFromISR                  
0100680d  xTaskIncrementTick                        
0100bced  xTaskPriorityDisinherit                   
0100b881  xTaskPriorityInherit                      
010090a5  xTaskRemoveFromEventList                  
01007ae9  xTaskResumeAll                            
010171e9  xTimerCreate                              
01014b89  xTimerCreateTimerTask                     
01012285  xTimerGenericCommand                      


GLOBAL SYMBOLS: SORTED BY Symbol Address 

address   name                                      
-------   ----                                      
00000400  __STACK_SIZE                              
01000800  resetVectors                              
01000841  __TI_printfi                              
0100128f  Board_initHook                            
01001b79  MQTTClientCallback                        
010020b9  _SlSocketHandleAsync_Select               
01002575  PRCMCC3200MCUInit                         
01002d25  publish_task                              
0100309d  Network_IF_ConnectAP                      
010033bd  _SlDrvReleasePoolObj                      
010036d9  jsmn_parse                                
010039f5  _SlDrvWaitForPoolObj                      
01003fad  MQTTAppThread                             
01004265  sl_WlanProfileAdd                         
01004515  sl_Select                                 
010047c1  WifiInit                                  
01004a55  SimpleLinkSockEventHandler                
01004ce5  sl_WlanConnect                            
01004f61  mq_open                                   
01005441  Network_IF_InitDriver                     
010056a5  _SlDrvDataReadOp                          
01005901  MQTT_IF_Connect                           
01005b4d  DisplayAppBanner                          
01005d85  MQTT_EventCallback                        
01005fb1  _SlDrvDriverCBInit                        
010061d5  _SlDrvDataWriteOp                         
010063ed  claw_control_task                         
01006601  UARTCC32XXDMA_open                        
0100680d  xTaskIncrementTick                        
01006c09  _SlNetAppEventHandler                     
01006dfb  PWMTimerCC32XX_init                       
01006dfd  GPIO_setConfig                            
01006fe1  SimpleLinkFatalErrorEventHandler          
010071c3  PowerCC32XX_initPolicy                    
010071c5  sl_Stop                                   
010073a5  SimpleLinkWlanEventHandler                
0100757d  SPICC32XXDMA_transfer                     
0100774d  xQueueSemaphoreTake                       
01007ae9  xTaskResumeAll                            
01007cb5  MQTT_IF_Subscribe                         
01008031  xQueueGenericSend                         
010081e9  __aeabi_dsub                              
010081f3  __aeabi_dadd                              
0100839f  TimerCC32XX_init                          
010083a1  _SlDrvReleaseAllActivePendingPoolObj      
01008555  PowerCC32XX_sleepPolicy                   
01008705  sl_Accept                                 
010088ad  pvPortMalloc                              
01008a51  MQTT_IF_Init                              
01008bf1  SlNetSock_select                          
010090a5  xTaskRemoveFromEventList                  
010093b1  SimpleLinkNetAppEventHandler              
01009531  xQueueReceive                             
010096ad  sl_Connect                                
01009825  sl_NetAppDnsGetHostByName                 
01009af5  SPICC32XXDMA_open                         
01009c4d  MQTTClient_connect                        
01009ef5  sl_RecvFrom                               
0100a2d9  sl_StartTLS                               
0100a421  vTaskPriorityDisinheritAfterTimeout       
0100a569  PWMTimerCC32XX_setDutyAndPeriod           
0100a6a9  _SlDrvMsgReadSpawnCtx                     
0100aa5f  UARTCC32XXDMA_init                        
0100aa61  Power_sleep                               
0100ab99  _SlSpawnMsgListInsert                     
0100acd1  pthread_create                            
0100ae09  __aeabi_ddiv                              
0100af41  _SlSocketHandleAsync_StartTLS             
0100b075  _SlDrvDriverCBDeinit                      
0100b1a5  TimerCC32XX_open                          
0100b3f5  xQueueGenericSendFromISR                  
0100b51d  sl_FsOpen                                 
0100b881  xTaskPriorityInherit                      
0100b9a1  sl_Start                                  
0100babd  _SlNetAppHandleAsync_DnsGetHostByService  
0100bbd5  vTaskSuspend                              
0100bced  xTaskPriorityDisinherit                   
0100be05  MQTT_PacketRecv                           
0100bf19  strtoul                                   
0100c029  xQueueGiveFromISR                         
0100c241  _SlDeviceEventHandler                     
0100c345  _SlDrvCmdOp                               
0100c54d  xQueueGenericReset                        
0100c651  _SlDrvObjGlobalLockWaitForever            
0100c751  sl_FsWrite                                
0100c851  vTaskDelete                               
0100c951  __aeabi_dmul                              
0100ca4d  MqttClientCtxCreate                       
0100cb45  SlNetIfWifi_loadSecObj                    
0100cc3d  UARTCC32XXDMA_close                       
0100cd35  sl_Close                                  
0100cf25  MQTTNet_commOpen                          
0100d01b  xQueueReceiveFromISR                      
0100d111  sl_SendTo                                 
0100d205  SPICC32XXDMA_transferCancel               
0100d2f9  PWMTimerCC32XX_open                       
0100d5b9  SlNetIf_add                               
0100d77b  __aeabi_idiv0                             
0100d77b  __aeabi_ldiv0                             
0100d77d  main                                      
0100d859  vTaskSwitchContext                        
0100d935  GetCmd                                    
0100da0d  SPICC32XXDMA_close                        
0100dae5  _SlDeviceHandleAsync_InitComplete         
0100dbbd  _SlDrvWaitForInternalAsyncEvent           
0100dc95  _SlNetAppHandleAsync_NetAppReceive        
0100dd6d  SetClientIdNamefromMacAddress             
0100df0d  ldexp                                     
0100df0d  ldexpl                                    
0100df0d  scalbn                                    
0100df0d  scalbnl                                   
0100e239  GPIO_init                                 
0100e2fd  PWMTimerCC32XX_stop                       
0100e3c1  MqttClientSub                             
0100e481  NwpPowerOff                               
0100e601  sl_NetCfgGet                              
0100e6c1  xPortStartScheduler                       
0100e781  _SlNetAppSendResponse                     
0100ea71  sl_Send                                   
0100eb3d  ulPortGetIPSR                             
0100eb55  xPortPendSVHandler                        
0100eba1  vPortSVCHandler                           
0100ebc5  vPortStartFirstTask                       
0100ebe7  setGPIOs                                  
0100eca1  PWMTimerCC32XX_setDuty                    
0100ee11  _SlNetAppHandleAsync_DnsGetHostByName     
0100eec9  _SlNetAppHandleAsync_PingResponse         
0100ef81  pushButtonConnectionHandler               
0100f039  sl_DeviceGet                              
0100f0f1  sl_WlanGet                                
0100f1a9  MqttClient_send                           
0100f311  _SlDrvHandleFatalError                    
0100f3c5  _SlNetUtilHandleAsync_Cmd                 
0100f479  _clock_abstime2ticks                      
0100f52d  sl_GetSockOpt                             
0100f5e1  xTaskCheckForTimeOut                      
0100f695  Report                                    
0100f7fd  SlNetIfWifi_getSockOpt                    
0100f8ad  matchModeByRole                           
0100fa09  _SlSocketHandleAsync_Close                
0100fab5  _SlSocketHandleAsync_Connect              
0100fb61  clock_gettime                             
0100fc0d  IntDisable                                
0100fcb5  IntEnable                                 
0100fd5d  Network_IF_IpConfigGet                    
0100fe05  PRCMPeripheralClockGet                    
0100fead  PowerCC32XX_configureWakeup               
0100fffd  sl_FsClose                                
010100a5  vPortFree                                 
0101014d  _SlDrvIsTimeoutExpired                    
010101f5  MQTTClient_create                         
01010299  MQTTClient_delete                         
0101033d  MqttClientConfig                          
01010485  sl_Bind                                   
01010529  ClockP_create                             
01010709  _SlSpawnMsgListProcess                    
010107a9  spi_Read                                  
01010847  spi_Write                                 
010108e5  MQTTClientCore_initLib                    
01010981  MQTTClientCore_sendPubMsg                 
01010ab9  __aeabi_memcpy                            
01010ab9  __aeabi_memcpy4                           
01010ab9  __aeabi_memcpy8                           
01010ab9  memcpy                                    
01010b55  vTaskStartScheduler                       
01010c8d  MQTT_IF_Publish                           
01010d25  PWMTimerCC32XX_setPeriod                  
01010dbd  TrimSpace                                 
01010eed  MQTTNet_tcpSelect                         
01010f83  __aeabi_uldivmod                          
01011019  ADCCC32XX_open                            
010110ad  Semaphore_pend_handle                     
010111d5  SlNetSock_create                          
01011267  mq_send                                   
01011389  _SlDeviceHandleAsync_Stop                 
01011419  _SlSocketHandleAsync_Accept               
010115c9  MQTTClientCore_createCtx                  
01011655  SlNetSock_accept                          
010116e1  UARTCC32XXDMA_write                       
0101176d  _SlDrvDriverIsApiAllowed                  
010117f9  _SlDrvProtectAsyncRespSetting             
01011911  sl_Recv                                   
0101199d  PWMTimerCC32XX_close                      
01011a25  PinConfigSet                              
01011aad  TimerCC32XX_setPeriod                     
01011b35  mq_receive                                
01011ccd  sl_UnregisterLibsEventHandler             
01011ddd  __aeabi_cdcmpeq                           
01011ddd  __aeabi_cdcmple                           
01011e63  __aeabi_cdrcmple                          
01011ee9  MQTTHelperTopicMatching                   
01011f6d  Power_init                                
01011ff1  SlNetIfWifi_sockstartSec                  
01012075  SlNetUtil_getHostByName                   
01012201  sl_SetSockOpt                             
01012285  xTimerGenericCommand                      
01012309  xQueueGenericCreate                       
0101238d  Power_setDependency                       
0101240d  UARTCC32XXDMA_read                        
0101250d  MQTTContextThread                         
01012589  UDMACC32XX_open                           
01012681  UARTCC32XXDMA_readPolling                 
01012775  __aeabi_memclr                            
01012775  __aeabi_memclr4                           
01012775  __aeabi_memclr8                           
01012777  __aeabi_memset                            
01012777  __aeabi_memset4                           
01012777  __aeabi_memset8                           
0101277d  memset                                    
010127ef  xTaskCreate                               
01012869  GPIO_hwiIntFxn                            
010128e1  MQTTNet_recvFrom                          
01012959  TimerCC32XX_start                         
01012a49  sl_Socket                                 
01012ac1  vTaskPlaceOnEventListRestricted           
01012b39  ADCCC32XX_close                           
01012bad  MQTTNet_tcpAccept                         
01012d7d  pthread_mutex_init                        
01012df1  vPortValidateInterruptPriority            
01012e65  MQTT_packetProcPubRx                      
01012ed9  SlNetSock_secAttribSet                    
01012f49  _SlDrvCmdSend_noLock                      
01013099  MQTTClient_run                            
01013171  _SlDeviceHandleResetRequestInternally     
01013249  _SlNetAppSendTokenValue                   
010132b5  pushButtonPublishHandler                  
01013321  MQTTNet_sendTo                            
0101338b  MQTT_qos2PubCqUnlog                       
010133f5  PWMTimerCC32XX_start                      
0101345d  _SlSpawnMsgListGetCount                   
010134c5  __TI_decompress_lzss                      
0101352d  eTaskConfirmSleepModeStatus               
01013595  spi_Open                                  
010135fd  realloc                                   
01013663  vListInsert                               
010136c9  ADCCC32XX_convert                         
0101372d  ClockP_stop                               
01013791  GPIO_toggle                               
010137f5  MQTT_packetPubAppendTopic                 
01013859  PowerCC32XX_setParkState                  
01013a4d  start500                                  
01013b15  HwiP_create                               
01013b75  PRCMSysResetCauseGet                      
01013bd5  SlNetSock_recvFrom                        
01013c35  SlNetSock_sendTo                          
01013c95  UARTCC32XXDMA_control                     
01013cf5  pthread_mutex_unlock                      
01013d55  SlNetIfWifi_setSockOpt                    
01013db3  sem_timedwait                             
01013e11  GPIO_setCallback                          
01013e6d  InitTerm                                  
01013ec9  MQTTClientCore_exitLib                    
01013f25  MQTTNet_tcpListen                         
01013f81  _SlInternalSpawn                          
01013fdd  calloc                                    
01014039  convert_To_mm                             
01014095  frexp                                     
01014095  frexpl                                    
0101414d  pthread_exit                              
010141a9  start70                                   
01014205  vQueueWaitForMessageRestricted            
01014261  vTaskDelay                                
010142bd  GPIO_write                                
01014315  IntPendClear                              
0101436d  PRCMPeripheralReset                       
010143c5  Power_releaseDependency                   
0101441d  SlNetSock_recv                            
01014475  SlNetSock_send                            
0101457d  fatalError                                
0101462d  sl_Listen                                 
01014685  sl_RegisterLibsEventHandler               
010146dd  vPortSetupTimerInterrupt                  
01014735  xQueueTakeMutexRecursive                  
0101478d  MQTT_packetPubAppendData                  
010147e3  SemaphoreP_create                         
01014839  TimerCC32XX_stop                          
0101493d  ClockP_delete                             
01014991  IntPrioritySet                            
010149e5  MQTTClientCore_deleteCtx                  
01014a39  MQTTClientCore_sendDisconn                
01014a8d  _SlDrvRxIrqHandler                        
01014ae1  __TI_ltoa                                 
01014b89  xTimerCreateTimerTask                     
01014bdd  PowerCC32XX_resumeLPDS                    
01014cd5  NwpRegisterInterruptHandler               
01014d25  SlNetIf_queryIf                           
01014d75  TimerCC32XX_allocateTimerResource         
01014dc5  UARTCC32XXDMA_writePolling                
01014e65  _SlDrvCmdSend_noWait                      
01014f05  _SlInternalSpawnTaskEntry                 
01014f55  _SlNetAppHttpServerHdlr                   
01014fa5  _SlNetAppRequestHdlr                      
01015045  mq_close                                  
01015095  pxPortInitialiseStack                     
010150e5  sem_init                                  
01015135  xQueueGiveMutexRecursive                  
01015185  MQTTClientCore_registerWillInfo           
01015221  GPIO_disableInt                           
0101526d  GPIO_enableInt                            
010152b9  NwpWaitForShutDownInd                     
01015305  PowerCC32XX_parkPin                       
01015351  SlNetIfWifi_getConnectionStatus           
010153e9  SlNetSock_startSec                        
01015481  atoi                                      
01015565  initVectors                               
01015779  sl_WlanSetMode                            
010157c5  snprintf                                  
01015811  vPortEnterCritical                        
0101585d  vTaskSetThreadLocalStoragePointer         
010158a9  ToggleLED1CB                              
010158f5  ToggleLED2CB                              
01015941  ToggleLED3CB                              
01015a21  FlashDisable                              
01015a69  HwiP_dispatch                             
01015ab1  MQTTClient_set                            
01015af9  PRCMLPDSEnter                             
01015b41  PRCMPeripheralClkEnable                   
01015b89  Power_releaseConstraint                   
01015bd1  SlNetSock_connect                         
01015c19  SlNetSock_init                            
01015c61  SlNetSock_setOpt                          
01015ca9  _SlDeviceFatalErrorEvtHdlr                
01015cf1  _SlDeviceGeneralEvtHdlr                   
01015d39  _SlDrvBasicCmd                            
01015d81  _SlDrvSyncObjWaitTimeout                  
01015dc9  _SlNetAppEvtHdlr                          
01015e11  _SlNetAppRequestMemFree                   
01015e59  _SlSockEvtHdlr                            
01015ea1  _SlWlanEvtHdlr                            
01015fc1  __aeabi_d2iz                              
01016009  sleep                                     
01016051  uxListRemove                              
01016127  xQueueCreateCountingSemaphore             
0101616d  ADC_init                                  
010161b1  MQTTClientCore_run                        
010161f5  MQTTNet_tcpRecv                           
01016239  MqttClientCtxDelete                       
0101627d  PRCMLPDSRestoreInfoSet                    
010162c1  PWM_init                                  
01016305  PowerCC32XX_enterLPDS                     
01016349  SPI_init                                  
010163d1  Timer_init                                
01016415  UART_init                                 
01016459  __TI_auto_init_nobinit_nopinit            
010164e1  __aeabi_d2uiz                             
01016525  ti_net_SlNet_initConfig                   
01016569  vTaskStepTick                             
010165f1  BrokerCB                                  
01016635  MQTT_packetBufRdRemlen                    
01016677  malloc                                    
010166b9  ADC_open                                  
01016739  InitializeAppVariables                    
01016779  MQTTClientCore_registerCtxInfo            
010167b9  PWM_open                                  
010167f9  PinModeSet                                
01016839  SPI_open                                  
01016879  SimpleLinkGeneralEventHandler             
010168b9  SlNetSock_bind                            
010168f9  Timer_open                                
01016939  UART_open                                 
01016979  UDMACC32XX_init                           
010169b9  _SlDrvGlobalObjUnLock                     
010169f9  _SlFindAndReleasePendingCmd               
01016a39  _SlInternalSpawnWaitForEvent              
01016a79  _SlIsEventRegistered                      
01016ab9  __aeabi_errno_addr                        
01016af9  _sl_ExtLib_ServerAckLockedWait            
01016bb9  vsnprintf                                 
01016bf9  ClockP_callbackFxn                        
01016c37  MQTT_packetAckWlistRemove                 
01016c75  MQTT_packetBufTailWrRemlen                
01016cb3  SlNetSock_close                           
01016de9  pthread_setcancelstate                    
01016e27  sem_post                                  
01016e65  MQTTClientCore_registerBuffers            
01016ea1  MQTTClient_disconnect                     
01016edd  MQTT_qos2PubCqCheck                       
01016f19  Network_IF_DisconnectFromAP               
01016f55  PRCMSlowClkCtrFastGet                     
01016f91  Power_setConstraint                       
01017081  pvTaskGetThreadLocalStoragePointer        
01017171  usleep                                    
010171ad  vListInsertEnd                            
010171e9  xTimerCreate                              
01017225  SlNetIfWifi_getIPAddr                     
0101725f  TimerCC32XX_close                         
0101730d  MQTTClientCore_registerNetSvc             
01017345  MQTT_qos2PubCqLogup                       
0101737d  PRCMLPDSEnterKeepDebugIf                  
010173b5  SlNetIfWifi_recvFrom                      
010173ed  SlNetIfWifi_sendTo                        
01017425  SlNetIfWifi_socket                        
01017495  SlNetSock_listen                          
010174cd  SlNetUtil_htonl                           
010174cd  SlNetUtil_ntohl                           
01017575  myNodeAlloc                               
010176c5  Network_IF_DeInitDriver                   
010176fd  MQTT_packetPrepFh                         
01017733  SlNetIfWifi_getHostByName                 
01017769  SlNetIfWifi_select                        
0101779f  TimerControlStall                         
01017841  strncpy                                   
01017879  PinModeGet                                
010178ad  PowerCC32XX_restoreParkState              
010178e1  SemaphoreP_pend                           
01017915  SlNetUtil_htons                           
01017915  SlNetUtil_ntohs                           
01017949  TimerCC32XX_freeTimerResource             
0101797d  UDMACC32XX_close                          
010179b1  callback500                               
01017b1d  vTaskPlaceOnEventList                     
01017b85  MQTT_clCtxTimeoutInsert                   
01017be9  PowerCC32XX_restoreParkedPin              
01017d69  vListInitialise                           
01017d99  vPortExitCritical                         
01017dc9  xTaskGetSchedulerState                    
01017df9  Mutex_create_handle                       
01017e27  pvTimerGetTimerID                         
01017e55  __aeabi_i2d                               
01017e85  GPIO_clearInt                             
01017eb1  HwiP_disable                              
01017edd  NwpPowerOn                                
01017f09  PRCMLPDSIntervalSet                       
01017f35  PowerCC32XX_getParkState                  
01017f61  SemaphoreP_createBinary                   
01017f8d  SlNetIfWifi_recv                          
01017fb9  SlNetIfWifi_send                          
01017fe5  _SlDrvSyncObjWaitForever                  
01018069  pthread_mutexattr_settype                 
010180c1  vTaskSetApplicationTaskTag                
010180ed  xPortSysTickHandler                       
01018119  xQueueCreateMutex                         
01018145  SlNetUtil_inetPton                        
0101816f  TimerLoadSet                              
01018199  TimerPrescaleSet                          
010181c3  UARTCC32XXDMA_readCancel                  
010181ed  UARTCC32XXDMA_writeCancel                 
010182bf  uxQueueMessagesWaiting                    
010182e9  HwiP_inISR                                
01018311  MQTT_packetBufWrUtf8                      
01018339  PRCMLPDSWakeupSourceEnable                
01018361  PRCMPeripheralClkDisable                  
01018389  Power_registerNotify                      
010183b1  SlNetIf_getIfByID                         
010183d9  SlNetSock_sdsIsSet                        
01018401  SlNetSock_sdsSet                          
01018429  SlNetSock_secAttribDelete                 
01018451  _SlDrvProtectionObjLockWaitForever        
01018479  _SlDrvProtectionObjUnLock                 
010184a1  _SlFlowContSet                            
010184f1  _sl_ExtLib_AwaitedAckLockedSet            
01018519  add_to_chain_queue                        
01018541  memmove                                   
01018569  pthread_attr_setschedparam                
01018591  sem_trywait                               
010185b9  xTaskGetApplicationTaskTag                
010185e1  List_put                                  
01018607  List_remove                               
0101862d  MQTT_clCtxRemove                          
01018653  _pthread_cleanup_pop                      
010186a1  IntUnregister                             
010186c5  PowerCC32XX_reset                         
010186e9  SlNetIf_getConnectionStatus               
0101870d  _SlDrvIsApiInProgress                     
01018731  _SlDrvStartMeasureTimeout                 
01018755  _c_int00_noargs                           
0101879d  create_chain_queue                        
010187c1  create_control_queue                      
010187e5  create_publish_queue                      
01018809  memcmp                                    
01018875  sem_getvalue                              
01018899  sl_WlanDisconnect                         
010188bd  vQueueDelete                              
010188e1  vTaskInternalSetTimeOutState              
01018905  MQTT_packetProcMsgIdAckRx                 
01018927  SemaphoreP_post                           
01018949  dbgEvent                                  
0101896b  pthread_attr_setdetachstate               
0101898d  ADCCC32XX_convertToMicroVolts             
010189ad  ClockP_getCpuFreq                         
010189cd  HwiP_restore                              
010189ed  IntRegister                               
01018a0d  MQTT_qos2PubCqReset                       
01018a2d  Power_unregisterNotify                    
01018a4d  SlNetIfWifi_accept                        
01018a6d  create_parsing_queue                      
01018a8d  create_sensor_queue                       
01018b0d  __aeabi_ui2d                              
01018b6d  topic_subscribe_callback                  
01018b8d  ClockP_start                              
01018bab  HwiP_Params_init                          
01018bc9  MQTTClientCore_alloc                      
01018be7  MQTTClientCore_ctxRun                     
01018c05  SlNetIfWifi_bind                          
01018c23  SlNetIfWifi_connect                       
01018c41  TimerDisable                              
01018c5f  TimerEnable                               
01018c7d  _SlDrvObjLockWaitForever                  
01018c9b  _SlDrvObjUnLock                           
01018cb9  _SlDrvSyncObjSignal                       
01018cf5  callback70                                
01018d13  jsmn_init                                 
01018d8b  ClockP_Params_init                        
01018da9  Message                                   
01018dc5  PinToPadGet                               
01018dfd  _SlInternalIsItSpawnThread                
01018e19  addSensor                                 
01018e35  addSubscribe                              
01018e51  add_to_publish_queue                      
01018ea5  memccpy                                   
01018edd  pthread_attr_init                         
01018ef9  pthread_mutexattr_init                    
01018f15  pvTaskIncrementMutexHeldCount             
01018f4d  MQTT_packetAckWlistPurge                  
01018f67  PTLS_taskDeleteHook                       
01018f81  SlNetIfWifi_listen                        
01018fb5  pthread_mutex_destroy                     
01018fcf  MQTT_clCtxTimeoutUpdate                   
01018fe9  Power_idleFunc                            
01019001  TimerCC32XX_getCount                      
01019019  TimerIntDisable                           
01019031  TimerIntEnable                            
01019049  UARTBusy                                  
01019061  UART_Params_init                          
010190a9  add_to_control_queue                      
010190c1  free                                      
01019109  retrieve_from_control_queue               
01019121  retrieve_publish_queue                    
01019139  __aeabi_lmul                              
01019151  sem_wait                                  
01019169  strcmp                                    
01019181  xTaskGetTickCountFromISR                  
01019199  ClockP_setTimeout                         
010191af  MQTTNet_commClose                         
010191c5  MQTT_clCtxReset                           
010191db  MQTT_packetFree                           
010191f1  MQTT_packetInit                           
01019207  PRCMHIBRegRead                            
0101921d  PRCMHIBRegWrite                           
01019233  PTLS_getBuf                               
01019249  PTLS_setBuf                               
0101925f  SemaphoreP_Params_init                    
01019275  _SlDrvMemZero                             
0101928d  resetISR                                  
0101929c  resetVectorAddr                           
010192a3  strchr                                    
010192b9  CPUcpsie                                  
010192cd  IntVTableBaseSet                          
010192e1  MQTTClient_publish                        
010192f5  MQTTNet_rtcSecs                           
01019309  MQTT_packetAckWlistAppend                 
0101931d  MQTT_packetReset                          
01019331  PWM_Params_init                           
01019345  Power_getDependencyCount                  
01019359  SPI_Params_init                           
0101936d  SlNetSock_sdsClrAll                       
010193a9  pthread_attr_setstacksize                 
010193bd  pthread_mutex_lock                        
010193d1  pthread_self                              
010193e5  sem_destroy                               
010193f9  strcpy                                    
0101940d  strlen                                    
01019421  timerCallback                             
0101945d  vPortSuppressTicksAndSleep                
01019471  xTaskGetCurrentTaskHandle                 
01019485  xTaskGetTickCount                         
01019499  HwiP_delete                               
010194ab  SlNetIfWifi_close                         
010194bd  TimerIntClear                             
01019505  wcslen                                    
01019517  Board_init                                
01019527  ClockP_getSystemTickPeriod                
01019537  SlNetSock_secAttribCreate                 
01019549  SysTickDisable                            
01019559  SysTickEnable                             
01019569  Timer_Params_init                         
01019579  _SlDrvDispatchHttpServerEvents            
01019589  _SlDrvDispatchNetAppRequestEvents         
01019599  _SlDrvIsSpawnOwnGlobalLock                
010195f9  vListInitialiseItem                       
01019609  vTaskSuspendAll                           
01019619  MQTTClient_subscribe                      
01019627  Power_getTransitionLatency                
01019635  _SlDrvResetCmdExt                         
01019643  _sl_ExtLib_AwaitedAckSet                  
0101965f  __TI_decompress_none                      
0101967b  spi_Close                                 
01019689  vApplicationStackOverflowHook             
01019697  CPUwfi                                    
010196a3  HwiP_clearInterrupt                       
010196af  HwiP_disableInterrupt                     
010196bb  HwiP_enableInterrupt                      
010196c7  MQTTClientCore_sendConnectMsg             
010196d3  MQTT_secureConnStructInit                 
010196e1  Network_IF_ResetMCUStateMachine           
010196ed  NwpMaskInterrupt                          
010196f9  NwpUnMaskInterrupt                        
01019705  Power_getConstraintMask                   
01019711  SemaphoreP_delete                         
0101971d  SimpleLinkHttpServerEventHandler          
01019729  SimpleLinkNetAppRequestEventHandler       
01019735  _SlDeviceResetRequestInitCompletedCB      
0101974d  copysign                                  
0101974d  copysignl                                 
01019759  __TI_zero_init                            
0101977d  timerLEDCallback                          
01019789  uDMAErrorStatusClear                      
01019795  uDMAErrorStatusGet                        
010197a1  vTaskMissedYield                          
010197ad  ADC_Params_init                           
010197b7  ADC_close                                 
010197c1  ADC_convert                               
010197cb  ADC_convertToMicroVolts                   
010197d5  IntMasterEnable                           
010197df  PWM_setDuty                               
010197e9  PWM_start                                 
010197f3  SPI_close                                 
010197fd  SPI_transfer                              
01019807  SimpleLinkNetAppRequestMemFreeEventHandler
01019811  Timer_close                               
0101981b  Timer_start                               
01019825  Timer_stop                                
0101982f  UART_control                              
01019839  UART_readPolling                          
01019843  UART_writePolling                         
0101984d  sl_Task                                   
01019857  ADCCC32XX_init                            
0101985f  ClockP_getSystemTicks                     
01019867  MQTTClientCore_sendSubMsg                 
0101986f  MQTTNet_tcpSend                           
01019877  PRCMSleepEnter                            
0101987f  TimerGetCurrentTimestamp                  
010198a7  ADCCC32XX_control                         
010198ad  PWMTimerCC32XX_control                    
010198b3  SPICC32XXDMA_control                      
010198b9  TimerCC32XX_control                       
010198bf  UtilsDelay                                
010198dd  SPICC32XXDMA_init                         
010198e1  SlNetIf_init                              
010198e5  SlNetUtil_init                            
010198e9  _system_pre_init                          
010198ed  C$$EXIT                                   
010198ed  abort                                     
010198f8  _ctypes_                                  
01019c78  spiCC32XXDMAHWAttrs                       
01019cf0  OpcodeTranslateTable                      
01019dbc  _SlActionLookupTable                      
01019e0c  PowerCC32XX_config                        
01019e4c  timerCC32XXHWAttrs                        
01019e7c  UARTCC32XXDMA_fxnTable                    
01019ea4  PWMTimerCC32XX_fxnTable                   
01019ec8  Timer_config                              
01019eec  UART_defaultParams                        
01019f55  Display_count                             
01019f56  CONFIG_ADC_0_CONST                        
01019f57  ADC_count                                 
01019f58  CONFIG_Crypto_0_CONST                     
01019f59  CryptoCC32XX_count                        
01019f5a  CONFIG_GPIO_BUTTON_0_CONST                
01019f5b  CONFIG_GPIO_BUTTON_1_CONST                
01019f5c  CONFIG_GPIO_LED_0_CONST                   
01019f5d  CONFIG_GPIO_LED_1_CONST                   
01019f5e  CONFIG_GPIO_LED_2_CONST                   
01019f5f  CONFIG_GPIO_0_CONST                       
01019f60  CONFIG_GPIO_1_CONST                       
01019f61  CONFIG_GPIO_2_CONST                       
01019f62  CONFIG_GPIO_3_CONST                       
01019f63  CONFIG_GPIO_4_CONST                       
01019f64  CONFIG_GPIO_5_CONST                       
01019f65  CONFIG_GPIO_6_CONST                       
01019f66  CONFIG_GPIO_7_CONST                       
01019f67  CONFIG_GPIO_8_CONST                       
01019f68  CONFIG_PWM_0_CONST                        
01019f69  CONFIG_PWM_1_CONST                        
01019f6a  PWM_count                                 
01019f6b  CONFIG_SPI_0_CONST                        
01019f6c  CONFIG_NWP_SPI_CONST                      
01019f6d  SPI_count                                 
01019f6e  CONFIG_TIMER_0_CONST                      
01019f6f  CONFIG_TIMER_1_CONST                      
01019f70  CONFIG_TIMER_2_CONST                      
01019f71  Timer_count                               
01019f72  CONFIG_UART_0_CONST                       
01019f73  UART_count                                
01019f74  CONFIG_WATCHDOG_0_CONST                   
01019f75  Watchdog_count                            
01019f98  SPI_defaultParams                         
01019fd8  TimerCC32XX_fxnTable                      
0101a018  ADCCC32XX_fxnTable                        
0101a030  PWM_config                                
0101a048  PWM_defaultParams                         
0101a060  SPICC32XXDMA_fxnTable                     
0101a078  SPI_config                                
0101a1a8  GPIOCC32XX_config                         
0101a29c  ADC_config                                
0101a2a8  UART_config                               
0101a2e4  udmaCC3220SHWAttrs                        
0101a2f0  ADC_defaultParams                         
0101a2f8  UDMACC32XX_config                         
0101a300  ulMaxSyscallInterruptPriority             
0101a320  outPinTypes                               
0101a328  pwmTimerCC32XXHWAttrs                     
0101a346  inPinTypes                                
0101a34c  outPinStrengths                           
0101a394  _SlNetAppSendResponseCmdCtrl              
0101a398  _SlNetAppSendTokenValueCmdCtrl            
0101a3c8  adcCC32XXHWAttrs                          
0101a3d0  uxTopUsedPriority                         
0101a3e0  __TI_static_base__                        
0101a5bc  __TI_Handler_Table_Base                   
0101a5c8  __TI_Handler_Table_Limit                  
0101a5d0  __TI_CINIT_Base                           
0101a5e0  __TI_CINIT_Limit                          
20000000  __start___llvm_prf_cnts                   
20000000  __stop___llvm_prf_cnts                    
20009000  g_CB                                      
200093fc  clients                                   
200096ac  PowerCC32XX_contextSave                   
20009a38  timerCC32XXObjects                        
20009ad4  spiCC32XXDMAObjects                       
20009bdc  uartCC32XXObjects0                        
20009d30  pwmTimerCC32XXObjects                     
20009da4  GlobalLockObj                             
20009dd0  g_SlInternalSpawnCB                       
20009df8  g_ucConnectionSSID                        
20009f34  MQTTClient_Lib_CB                         
20009f5c  DeviceCB                                  
20009f68  Msg                                       
20009f8c  g_ucConnectionBSSID                       
20009f94  spiCC32XXSDMAscratchBuf                   
20009f9c  udmaCC3220SObject                         
20009fcc  adcCC32XXObjects                          
20009fd0  appQueue                                  
20009fd4  connected                                 
20009fd8  deinit                                    
20009fdc  timer0                                    
20009fe0  MQTTClient_waitSecs                       
20009fe2  g_usConnectIndex                          
20009fe4  RxIrqCnt                                  
20009fe8  HwiP_dispatchTable                        
2000a7e8  PowerCC32XX_module                        
2000a954  parkInfo                                  
2000aa4c  SlNetIfConfigWifi                         
2000aaa4  gpioCallbackFunctions                     
2000aadc  gpioPinConfigs                            
2000ab4c  pxCurrentTCB                              
2000ab80  MQTTClient_net                            
2000aba8  g_LibsEvents                              
2000abcc  g_UserEvents                              
2000ac3c  mqttClientParams                          
2000ac54  mqttConnParams                            
2000ac90  IRmessages                                
2000ac94  count                                     
2000ac98  avg                                       
2000aca0  ClientId                                  
2000acc8  mqttWillParams                            
2000acd4  g_ulStaIp                                 
2000acd8  g_ulGatewayIP                             
2000acdc  g_ulStatus                                
2000ace0  gGlobalLockCntRequested                   
2000ace1  gGlobalLockCntReleased                    
2000ace2  g_SlDeviceStatus                          
2000ace4  g_pCB                                     
2000ace8  pPingCallBackFunc                         
2000ad04  MQTTClient_closeContext                   
2000ad08  MQTTClient_clientContext                  
2000ad0c  MQTTClient_multiSrvConn                   
2000ad10  MQTTClient_clientCfg                      
2000ad28  mqttInitParams                            
2000ad50  MQTTClient_connectCfg                     
2000ad60  longPress                                 
2000ad64  g_intHandle                               
2003fc00  __stack                                   
20040000  __STACK_END                               
ffffffff  __TI_pprof_out_hndl                       
ffffffff  __TI_prof_data_size                       
ffffffff  __TI_prof_data_start                      
ffffffff  __binit__                                 
ffffffff  __c_args__                                
ffffffff  binit                                     
UNDEFED   __mpu_init                                
UNDEFED   _system_post_cinit                        

[782 symbols]
